(lp0
(lp1
Vsafety
p2
aVtraining
p3
aVcommittee
p4
aVcomprised
p5
aVcorporate
p6
aVfacility
p7
aVbased
p8
aVemployee
p9
aVneed
p10
aVcorporate
p11
aVfacility
p12
aVsafety
p13
aVtraining
p14
aa(lp15
Vwellness
p16
aVfair
p17
aVevent
p18
aVbring
p19
aVhealth
p20
aVrelated
p21
aVactivity
p22
aVworkplace
p23
aVprovide
p24
aVemployee
p25
aVtip
p26
aVwellness
p27
aVjob
p28
aVhome
p29
aa(lp30
Vconduct
p31
aVenvironmental
p32
aVtraining
p33
aVoperating
p34
aVfacility
p35
aVlevel
p36
aVemployee
p37
aVnew
p38
aVemployee
p39
aVfacility
p40
aVmanager
p41
aa(lp42
Vconduct
p43
aVenvironmental
p44
aVaudit
p45
aa(lp46
Vregularly
p47
aVconduct
p48
aVsafety
p49
aVaudit
p50
aVfacility
p51
aVensure
p52
aVcompliance
p53
aVregulation
p54
aVinternal
p55
aVrequirement
p56
aa(lp57
Vchemical
p58
aVmaterial
p59
aVmanagement
p60
aVprogram
p61
aVprovides
p62
aVtracking
p63
aVuse
p64
aVchemical
p65
aVmaterial
p66
aVfacility
p67
aa(lp68
Vwaste
p69
aVsite
p70
aVreview
p71
aVboard
p72
aVresponsible
p73
aVcompany
p74
aVeffort
p75
aVminimize
p76
aVwaste
p77
aVdisposal
p78
aVevaluation
p79
aVcommercial
p80
aVwaste
p81
aVfacility
p82
aa(lp83
Vactive
p84
aVprogram
p85
aVencouraging
p86
aVemployee
p87
aVgood
p88
aVidea
p89
aa(lp90
Vbudweiser
p91
aVfamily
p92
aVwholesaler
p93
aVbrand
p94
aVconsumer
p95
aVunited
p96
aVstate
p97
aVraised
p98
aVhelp
p99
aVconservation
p100
aVeffort
p101
aVhelp
p102
aVbudweiser
p103
aVhelp
p104
aVprogram
p105
aVnational
p106
aVfish
p107
aVwildlife
p108
aVfoundation
p109
aVmatch
p110
aVleading
p111
aVconservation
p112
aVorganization
p113
aa(lp114
Vbudweiser
p115
aVconservation
p116
aVscholarship
p117
aVprogram
p118
aVrecognized
p119
aVstudent
p120
aVscholarship
p121
aVscholarship
p122
aVwent
p123
aVindividual
p124
aVinnovation
p125
aVresearch
p126
aVhelp
p127
aVapply
p128
aVeffective
p129
aVsolution
p130
aVconservation
p131
aVproblem
p132
aa(lp133
Vriver
p134
aVnetwork
p135
aVclean
p136
aVwater
p137
aVchampion
p138
aVbusiness
p139
aVpartnership
p140
aVprogram
p141
aVpositive
p142
aVeffect
p143
aVwater
p144
aVquality
p145
aVcommunity
p146
aa(lp147
Vintroduced
p148
aVamerica
p149
aVbeautiful
p150
aVenvironmental
p151
aVgrant
p152
aVprogram
p153
aVgrant
p154
aVawarded
p155
aVamerica
p156
aVbeautiful
p157
aVinclude
p158
aVcommunity
p159
aVvolunteer
p160
aVorganization
p161
aVoutstanding
p162
aVprogram
p163
aVplace
p164
aVprevent
p165
aVlitter
p166
aVreduce
p167
aVwaste
p168
aVimproving
p169
aVlocal
p170
aVcommunity
p171
aa(lp172
Vencourages
p173
aVehs
p174
aVawareness
p175
aVresponsibility
p176
aVsupplier
p177
aVwholesaler
p178
aVsupplier
p179
aVcertification
p180
aVprogram
p181
aVincludes
p182
aVehs
p183
aVstandard
p184
aVassist
p185
aVsupplier
p186
aVminimizing
p187
aVenvironmental
p188
aVimpact
p189
aVcreating
p190
aVsafe
p191
aVworkplace
p192
aa(lp193
Vcompressed
p194
aVair
p195
aVleak
p196
aVprogram
p197
aVoverall
p198
aVreview
p199
aVeffort
p200
aVminimize
p201
aVelectricity
p202
aVuse
p203
aa(lp204
Vmanaging
p205
aVsteam
p206
aVload
p207
aa(lp208
Vboiler
p209
aVefficiency
p210
aVtracking
p211
aVprogram
p212
aVplace
p213
aVemphasis
p214
aVproper
p215
aVtesting
p216
aVboiler
p217
aVbrewery
p218
aVgoal
p219
aVreducing
p220
aVfuel
p221
aVcost
p222
aVimproving
p223
aVboiler
p224
aVsafety
p225
aVimproving
p226
aVenvironmental
p227
aVperformance
p228
aVe
p229
aVlower
p230
aVemission
p231
aVheat
p232
aVenergy
p233
aVproduced
p234
aa(lp235
Vcalifornia
p236
aVbrewery
p237
aVreduced
p238
aVelectricity
p239
aVuse
p240
aVsteam
p241
aa(lp242
Vwaste
p243
aVsteam
p244
aVcity
p245
aVpower
p246
aVplant
p247
aVmalt
p248
aVplant
p249
aVused
p250
aVprocess
p251
aVsubstantially
p252
aVreducing
p253
aVneed
p254
aVnatural
p255
aVgas
p256
aVfacility
p257
aa(lp258
Vgeorgia
p259
aVbrewery
p260
aVlaunched
p261
aVcomprehensive
p262
aVeffort
p263
aVreduce
p264
aVcompressed
p265
aVair
p266
aVusage
p267
aVreducing
p268
aVair
p269
aVdistribution
p270
aVpressure
p271
aVbrewery
p272
aVhelped
p273
aVminimize
p274
aVleak
p275
aa(lp276
Vus
p277
aVbio
p278
aVenergy
p279
aVrecovery
p280
aVsystem
p281
aa(lp282
Vcarbon
p283
aVfilter
p284
aVused
p285
aVirrigation
p286
aVpurpose
p287
aVreplacing
p288
aVuse
p289
aVcity
p290
aVwater
p291
aa(lp292
Vhot
p293
aVwater
p294
aVreduced
p295
aa(lp296
Vwork
p297
aVsupplier
p298
aVunderstand
p299
aVwater
p300
aVmanagement
p301
aVstrategy
p302
aVpotential
p303
aVsupply
p304
aVchain
p305
aVrisk
p306
aVrelated
p307
aVwater
p308
aVissue
p309
aVsupply
p310
aVchain
p311
aVinitiative
p312
aVbegan
p313
aVcompany
p314
aVpackaging
p315
aVsupplier
p316
aVsurveyed
p317
aVsupplier
p318
aVwater
p319
aVusage
p320
aVmet
p321
aVhighest
p322
aVuser
p323
aVarea
p324
aVface
p325
aVlimited
p326
aVwater
p327
aVavailability
p328
aa(lp329
Vcompany
p330
aVestablished
p331
aVpartnership
p332
aVoutside
p333
aVorganization
p334
aVworking
p335
aVwater
p336
aVresource
p337
aVriver
p338
aVnetwork
p339
aVizaak
p340
aVwalton
p341
aVleague
p342
aVamerica
p343
aVnational
p344
aVfish
p345
aVwildlife
p346
aVfoundation
p347
aVliving
p348
aVland
p349
aVwater
p350
aa(lp351
Vbrewery
p352
aVfort
p353
aVcollins
p354
aVcolorado
p355
aVland
p356
aVapplication
p357
aVprovides
p358
aVenvironmentally
p359
aVsound
p360
aVmethod
p361
aVwater
p362
aVnutrient
p363
aVsoil
p364
aVproduce
p365
aVhigh
p366
aVquality
p367
aVforage
p368
aVcrop
p369
aa(lp370
Vprocess
p371
aVtreat
p372
aVwastewater
p373
aVbio
p374
aVenergy
p375
aVrecovery
p376
aa(lp377
Vresulting
p378
aVused
p379
aVlandscaping
p380
aVagricultural
p381
aVapplication
p382
aa(lp383
Vconverted
p384
aVform
p385
aVproviding
p386
aValternative
p387
aVpaper
p388
aVhalf
p389
aVcompany
p390
aVform
p391
aa(lp392
Vlid
p393
aVreduction
p394
aVproject
p395
aVmajority
p396
aVcompany
p397
aValuminum
p398
aVcan
p399
aa(lp400
Vreduced
p401
aVpackage
p402
aVreducing
p403
aVuse
p404
aVmetric
p405
aVton
p406
aa(lp407
Vcompany
p408
aVcontinued
p409
aVhardwood
p410
aVpallet
p411
aVpallet
p412
aVproduct
p413
aVnew
p414
aVpallet
p415
aVdesign
p416
aVpercent
p417
aVrecyclable
p418
aVwood
p419
aVaddition
p420
aVlighter
p421
aVweight
p422
aVdesign
p423
aVallows
p424
aVreduced
p425
aVenergy
p426
aVuse
p427
aVtransportation
p428
aVcost
p429
aa(lp430
Vcompany
p431
aVspends
p432
aVroughly
p433
aVbillion
p434
aVannually
p435
aVproduct
p436
aVmaterial
p437
aVmetric
p438
aVton
p439
aVpost
p440
aVconsumer
p441
aVmaterial
p442
aVincluding
p443
aVpackaging
p444
aVmaterial
p445
aVrecycled
p446
aVpaper
p447
aVproduct
p448
aVoffice
p449
aVsupply
p450
aa(lp451
Vtoday
p452
aVcompany
p453
aVrecycles
p454
aVpercent
p455
aVsolid
p456
aVwaste
p457
aVgenerated
p458
aa(lp459
Vrecycling
p460
aVfounded
p461
aVlargest
p462
aValuminum
p463
aVcan
p464
aVworld
p465
aa(lp466
Vextends
p467
aVrecycling
p468
aVcommitment
p469
aVsupply
p470
aVchain
p471
aVpartner
p472
aVcompany
p473
aVbegan
p474
aVprogram
p475
aVhelp
p476
aVwholesaler
p477
aVrecycle
p478
aVstretch
p479
aVfilm
p480
aVused
p481
aVsecure
p482
aVpallet
p483
aVbeer
p484
aVtransportation
p485
aa(lp486
Vtransportation
p487
aVadvantage
p488
aVcost
p489
aVimproving
p490
aVservice
p491
aVmanaging
p492
aVtransportation
p493
aVcompany
p494
aVable
p495
aVimprove
p496
aVavailable
p497
aVvehicle
p498
aVidentify
p499
aVlighter
p500
aVweight
p501
aVvehicle
p502
aVused
p503
aVuse
p504
aVtruck
p505
aVtransport
p506
aVmaterial
p507
aVtrip
p508
aa(lp509
Vcompany
p510
aVactive
p511
aVparticipant
p512
aVwastewise
p513
aVenvironmental
p514
aVprotection
p515
aVagency
p516
aVepa
p517
aVvoluntary
p518
aVprogram
p519
aVencourages
p520
aVorganization
p521
aVestablish
p522
aVwaste
p523
aVreduction
p524
aVgoal
p525
aVimplement
p526
aVwaste
p527
aVreduction
p528
aVprogram
p529
aVtrack
p530
aVperformance
p531
aVepa
p532
aVwastewise
p533
aVpartner
p534
aVyear
p535
aVlarge
p536
aVbusiness
p537
aVcategory
p538
aVrecognizing
p539
aVcompany
p540
aVminimizing
p541
aVpollution
p542
aVreducing
p543
aVsolid
p544
aVwaste
p545
aVcompany
p546
aVreceived
p547
aVwastewise
p548
aVrecognition
p549
aVyear
p550
aa(lp551
Vcalifornia
p552
aVbrewery
p553
aVsignificantly
p554
aVreduced
p555
aVwaste
p556
aVoil
p557
aVdisposal
p558
aVusing
p559
aVoil
p560
aVpurification
p561
aa(lp562
Vcompost
p563
aVwaste
p564
aa(lp565
Vrequired
p566
aVepa
p567
aVamendment
p568
aVact
p569
aVreport
p570
aVannually
p571
aVrelease
p572
aVtoxic
p573
aVchemical
p574
aVenvironment
p575
aa(lp576
Vimplemented
p577
aVprogram
p578
aVminimize
p579
aVuse
p580
aVozone
p581
aVdepleting
p582
aVcfc
p583
aVoperation
p584
aVbrewery
p585
aVuse
p586
aVammonia
p587
aVinstead
p588
aVcfc
p589
aVrefrigeration
p590
aVsystem
p591
aa(lp592
Vagricultural
p593
aVresource
p594
aVcontinues
p595
aVsuccessfully
p596
aVpilot
p597
aVheat
p598
aVtreatment
p599
aVoperation
p600
aValternative
p601
aVuse
p602
aVozone
p603
aVdepleting
p604
aVchemical
p605
aa(lp606
Vus
p607
aVtechnology
p608
aVadvance
p609
aVpurification
p610
aVsystem
p611
aVcap
p612
aVcapture
p613
aVgas
p614
aVfermentation
p615
aVprocess
p616
aVfeasible
p617
aVaddition
p618
aVcap
p619
aVrecovers
p620
aVhigher
p621
aVquality
p622
aVgas
p623
aVincreased
p624
aVlevel
p625
aVreuse
p626
aa(lp627
Vcurrently
p628
aVghg
p629
aVemission
p630
aVfollowing
p631
aVguidance
p632
aVghg
p633
aVprotocol
p634
aVdeveloped
p635
aVworld
p636
aVresource
p637
aVinstitute
p638
aVworld
p639
aVbusiness
p640
aVcouncil
p641
aVsustainable
p642
aVdevelopment
p643
aa(lp644
Vconsistent
p645
aVcontrol
p646
aVprocess
p647
aa(lp648
a(lp649
Vattention
p650
aVmechanical
p651
aVleft
p652
aVopen
p653
aa(lp654
Vsupplier
p655
aVdeliver
p656
aVtime
p657
aVorder
p658
aVminimize
p659
aVrelease
p660
aVstorage
p661
aa(lp662
Vlong
p663
aVcontinuous
p664
aVbrewing
p665
aVperiod
p666
aa(lp667
Vrecycled
p668
aVspent
p669
aVbrewer
p670
aVgrain
p671
aVcattle
p672
aVfeed
p673
aa(lp674
Vcompany
p675
aVhelped
p676
aVamerica
p677
aVbeautiful
p678
aa(lp679
Vjoined
p680
aVforce
p681
aVizaak
p682
aVwalton
p683
aVleague
p684
aVamerica
p685
aVcampaign
p686
aa(lp687
Vdeveloped
p688
aVestablishing
p689
aVcommunity
p690
aVlitter
p691
aVprevention
p692
aVeffort
p693
aVlid
p694
aVlitter
p695
aVpartnership
p696
aVizaak
p697
aVwalton
p698
aVleague
p699
aVamerica
p700
aVamerica
p701
aVbeautiful
p702
aa(lp703
Vpositive
p704
aVmessage
p705
aVrecycling
p706
aVlitter
p707
aVprevention
p708
aVvariety
p709
aVencouraging
p710
aVpeople
p711
aVwaste
p712
aVproperly
p713
aVrecycle
p714
aVpossible
p715
aa(lp716
Vrecycling
p717
aVpartner
p718
aVlocal
p719
aVpromote
p720
aVevent
p721
aVrecycling
p722
aVvariety
p723
aVvenue
p724
aVincluding
p725
aVmusic
p726
aVfestival
p727
aVvenue
p728
aVevent
p729
aa(lp730
Vaddition
p731
aVcompany
p732
aVpartnered
p733
aVleading
p734
aVbeverage
p735
aVproducer
p736
aVbeer
p737
aVsoft
p738
aVdrink
p739
aVwater
p740
aVindustry
p741
aVform
p742
aVbeverage
p743
aVpackaging
p744
aVenvironmental
p745
aVcouncil
p746
aVcouncil
p747
aVunited
p748
aVmission
p749
aVincrease
p750
aVbeverage
p751
aVcontainer
p752
aVrecycling
p753
aVinnovative
p754
aVcomprehensive
p755
aVlong
p756
aVterm
p757
aVsolution
p758
aVpartnership
p759
aa(lp760
Vseaworld
p761
aVgarden
p762
aVprovided
p763
aVstudent
p764
aVguest
p765
aVvariety
p766
aVconservation
p767
aVeducation
p768
aVprogram
p769
aVadventure
p770
aVaddition
p771
aVpark
p772
aVrepresentative
p773
aVjoined
p774
aVforce
p775
aVdiverse
p776
aVgroup
p777
aVanimal
p778
aVambassador
p779
aVspread
p780
aVmessage
p781
aVconservation
p782
aVmillion
p783
aVpark
p784
aVguest
p785
aVtelevision
p786
aVconsumer
p787
aa(lp788
Vnonprofit
p789
aVseaworld
p790
aVgarden
p791
aVconservation
p792
aVfund
p793
aVfield
p794
aVconservation
p795
aVproject
p796
aVworld
p797
aVresearching
p798
aVrhino
p799
aVafrica
p800
aa(lp801
Vgarden
p802
aVlong
p803
aVblack
p804
aVrhino
p805
aVsuccessfully
p806
aVborn
p807
aVraised
p808
aVpark
p809
aa(lp810
Vseaworld
p811
aVanimal
p812
aVteam
p813
aa(lp814
Ventertainment
p815
aVcontinues
p816
aVlong
p817
aVstanding
p818
aVsupport
p819
aVwildlife
p820
aVprogram
p821
aVfinancial
p822
aVdonation
p823
aVtotaling
p824
aVmillion
p825
aVannually
p826
aVinvolvement
p827
aa(lp828
Vadventure
p829
aVpark
p830
aVsupport
p831
aVwork
p832
aVenvironmental
p833
aVorganization
p834
aVworld
p835
aa(lp836
Vlong
p837
aVstanding
p838
aVrelationship
p839
aVwildlife
p840
aVhabitat
p841
aVcouncil
p842
aVwhc
p843
aVcorporate
p844
aVwildlife
p845
aVhabitat
p846
aVcertification
p847
aVcorporate
p848
aVland
p849
aVlearning
p850
aVprogram
p851
aa(lp852
Vemployee
p853
aVvolunteered
p854
aVcountless
p855
aVhour
p856
aVwhc
p857
aVproject
p858
aVyear
p859
aa(lp860
Vfacility
p861
aVdesigned
p862
aVaccommodate
p863
aVwildlife
p864
aVsite
p865
aVgeorgia
p866
aVbrewery
p867
aVsite
p868
aVassociated
p869
aVresource
p870
aVrecovery
p871
aVfarm
p872
aVcertified
p873
aVwildlife
p874
aVhabitat
p875
aVproviding
p876
aVland
p877
aa(lp878
Vtotal
p879
aVfacility
p880
aVenvironmental
p881
aVaudit
p882
aVnumber
p883
aa(lp884
Vcompany
p885
aVcompleted
p886
aVsenior
p887
aVmanagement
p888
aVchallenge
p889
aVsafety
p890
aVcampaign
p891
aVstarted
p892
aVset
p893
aVlower
p894
aVgoal
p895
aVyear
p896
aa(lp897
Vwholesaler
p898
aVsafety
p899
aVpartnership
p900
aVprogram
p901
aVhelp
p902
aVindependent
p903
aVwholesaler
p904
aVimprove
p905
aVemployee
p906
aVproperty
p907
aVsafety
p908
aVinitiated
p909
aVprogram
p910
aVus
p911
aVdistance
p912
aVlearning
p913
aVwebsite
p914
aVcommunicate
p915
aVwholesaler
p916
aVwide
p917
aVrange
p918
aVsafety
p919
aVissue
p920
aa(lp921
Vwholesaler
p922
aVintegrated
p923
aVlearning
p924
aVprogram
p925
aVdeliver
p926
aVdistance
p927
aVlearning
p928
aVnetwork
p929
aVprivate
p930
aVtelevision
p931
aVnetwork
p932
aVwholesaler
p933
aVtraining
p934
aVservice
p935
aVworkplace
p936
aVsafety
p937
aVseries
p938
aVair
p939
aVprogram
p940
aVaddress
p941
aVvarious
p942
aVaspect
p943
aVsafety
p944
aVrisk
p945
aVmanagement
p946
aVwholesaler
p947
aVsite
p948
aVprovides
p949
aVsafety
p950
aVpartnership
p951
aVinformation
p952
aa(lp953
Vemployee
p954
aVvisit
p955
aVpersonal
p956
aVeligible
p957
aVcompany
p958
aVpaid
p959
aVtrip
p960
aVwinner
p961
aVselected
p962
aVyear
p963
aVlocal
p964
aVincentive
p965
aVoffered
p966
aVyear
p967
aVencourage
p968
aVparticipation
p969
aa(lp970
Vability
p971
aVlife
p972
aVholistic
p973
aVprogram
p974
aVfocusing
p975
aVemployee
p976
aVfamily
p977
aVpersonal
p978
aVresponsibility
p979
aVhealth
p980
aVsafety
p981
aa(lp982
Vteam
p983
aVmichelob
p984
aVultra
p985
aVst
p986
aVlouis
p987
aVmissouri
p988
aVbike
p989
aVteam
p990
aVemployee
p991
aVfriend
p992
aVraised
p993
aVpast
p994
aVyear
p995
aVbike
p996
aVriding
p997
aVevent
p998
aVbenefit
p999
aVmultiple
p1000
aVsociety
p1001
aVevent
p1002
aVgroup
p1003
aVentered
p1004
aVrider
p1005
aVraised
p1006
aVlargest
p1007
aVsingle
p1008
aVteam
p1009
aa(lp1010
Vemployee
p1011
aVteam
p1012
aVmichelob
p1013
aVultra
p1014
aVnew
p1015
aVhampshire
p1016
aVbrewery
p1017
aVparticipated
p1018
aVk
p1019
aVroad
p1020
aVrace
p1021
aVaugust
p1022
aVevent
p1023
aVbenefited
p1024
aVnew
p1025
aVhampshire
p1026
aVspecial
p1027
aa(lp1028
Vth
p1029
aVannual
p1030
aVst
p1031
aVlouis
p1032
aVkomen
p1033
aVrace
p1034
aVcure
p1035
aVtremendous
p1036
aVsuccess
p1037
aVnearly
p1038
aVparticipant
p1039
aVraising
p1040
aVmillion
p1041
aVsusan
p1042
aVg
p1043
aVkomen
p1044
aVbreast
p1045
aVcancer
p1046
aVfoundation
p1047
aa(lp1048
Vbike
p1049
aVmonth
p1050
aVprovides
p1051
aVchance
p1052
aVnew
p1053
aVbicycle
p1054
aVrider
p1055
aVenjoy
p1056
aVvariety
p1057
aVbike
p1058
aVride
p1059
aVeducational
p1060
aVevent
p1061
aVdesigned
p1062
aVassist
p1063
aVencourage
p1064
aVbicycle
p1065
aVriding
p1066
aVfort
p1067
aVcollins
p1068
aVcolorado
p1069
aa(lp1070
Vbike
p1071
aVwork
p1072
aVday
p1073
aa(lp1074
Vcommunity
p1075
aVevent
p1076
aVfort
p1077
aVcollins
p1078
aVbusiness
p1079
aVform
p1080
aVcompany
p1081
aVteam
p1082
aVcompetition
p1083
aa(lp1084
Vfacility
p1085
aVpark
p1086
aVinspection
p1087
aa(lp1088
Vspecial
p1089
aVfield
p1090
aVvisit
p1091
aa(lp1092
Vequipment
p1093
aVtesting
p1094
aVflow
p1095
aVtest
p1096
aVflow
p1097
aVtest
p1098
aVcity
p1099
aVwater
p1100
aVsupply
p1101
aVspecial
p1102
aVprotection
p1103
aVtest
p1104
aa(lp1105
Vhot
p1106
aVwork
p1107
aVcompliance
p1108
aVaudit
p1109
aa(lp1110
Vhigh
p1111
aVstorage
p1112
aVassessment
p1113
aa(lp1114
Vcapital
p1115
aVplant
p1116
aVfacility
p1117
aVproject
p1118
aVplan
p1119
aVreview
p1120
aa(lp1121
Vhazard
p1122
aVassessment
p1123
aVrisk
p1124
aVimprovement
p1125
aVinitiative
p1126
aa(lp1127
Vboiler
p1128
aVsite
p1129
aVreview
p1130
aa(lp1131
Vcompliance
p1132
aVrate
p1133
aa(lp1134
Vinternal
p1135
aVboiler
p1136
aVinspection
p1137
aa(lp1138
Vammonia
p1139
aVprocess
p1140
aVhazard
p1141
aVreview
p1142
aa(lp1143
Vwind
p1144
aVimpact
p1145
aS'analysis'
p1146
aa(lp1147
Vimpact
p1148
ag1146
aa(lp1149
Vfamily
p1150
aVtalk
p1151
aVdrinking
p1152
aVhelp
p1153
aVprevent
p1154
aVunderage
p1155
aVdrinking
p1156
aVencouraging
p1157
aVopen
p1158
aVhonest
p1159
aVcommunication
p1160
aVparent
p1161
aS'child'
p1162
aa(lp1163
Vserver
p1164
aVtraining
p1165
aVprogram
p1166
aVtrain
p1167
aVbartender
p1168
aVwaiter
p1169
aVstore
p1170
aVmethod
p1171
aVhelp
p1172
aVprevent
p1173
aValcohol
p1174
aVabuse
p1175
aVsituation
p1176
aVprevent
p1177
aVsale
p1178
aVminor
p1179
aa(lp1180
Vgood
p1181
aVsport
p1182
aVcommunication
p1183
aVtraining
p1184
aVfan
p1185
aVmanagement
p1186
aVprogram
p1187
aVdesigned
p1188
aVhelp
p1189
aVteam
p1190
aVowner
p1191
aVconcessionaire
p1192
aVaddress
p1193
aVprevent
p1194
aVproblem
p1195
aVbehavior
p1196
aa(lp1197
Vdesignated
p1198
aVdriver
p1199
aVprogram
p1200
aVincluding
p1201
aVo
p1202
aVdesignated
p1203
aVdriver
p1204
aVprogram
p1205
aVpromote
p1206
aVuse
p1207
aVdesignated
p1208
aVdriver
p1209
aVbar
p1210
aVrestaurant
p1211
aVhome
p1212
aVparty
p1213
aVconsumer
p1214
aVreceive
p1215
aVfree
p1216
aVnon
p1217
aValcohol
p1218
aVbeverage
p1219
aVdiscount
p1220
aVfood
p1221
aVbar
p1222
aVrestaurant
p1223
aVexchange
p1224
aVnamed
p1225
aVdesignated
p1226
aVdriver
p1227
aVgroup
p1228
aVdrinking
p1229
aa(lp1230
Vcab
p1231
aVfight
p1232
aVdrunk
p1233
aVdriving
p1234
aVproviding
p1235
aVbar
p1236
aVrestaurant
p1237
aVpatron
p1238
aVfree
p1239
aVreduced
p1240
aVcab
p1241
aVride
p1242
aVhome
p1243
aa(lp1244
Vsound
p1245
aVdesigned
p1246
aVhelp
p1247
aVmusic
p1248
aVentertainment
p1249
aVvenue
p1250
aVfacility
p1251
aVmanager
p1252
aVconcessionaire
p1253
aVpromote
p1254
aVpositive
p1255
aVfan
p1256
aVbehavior
p1257
aVencouraging
p1258
aVpersonal
p1259
aVresponsibility
p1260
aVrespect
p1261
aVfan
p1262
aVrespect
p1263
aVlaw
p1264
aa(lp1265
Vpay
p1266
aVfair
p1267
aVprice
p1268
aVcoffee
p1269
aVfarmer
p1270
aVsupplier
p1271
aa(lp1272
Vdonates
p1273
aVcharity
p1274
aa(lp1275
Vmeasure
p1276
aVelectricity
p1277
aVused
p1278
aVretail
p1279
aVspace
p1280
aa(lp1281
Vmeasure
p1282
aVwater
p1283
aVuse
p1284
aVretail
p1285
aVspace
p1286
aa(lp1287
Vhot
p1288
aVbeverage
p1289
aVcup
p1290
aVpost
p1291
aVconsumer
p1292
aVfiber
p1293
aa(lp1294
Vnew
p1295
aVstore
p1296
aVfeature
p1297
aVanti
p1298
aVmat
p1299
aa(lp1300
Vbusiness
p1301
aVcertified
p1302
aVminority
p1303
aVwoman
p1304
aVowned
p1305
aVbusiness
p1306
aVu
p1307
aa(lp1308
Vboard
p1309
aVmember
p1310
aVinclude
p1311
aVmember
p1312
aVnon
p1313
aVwhite
p1314
aVethnicity
p1315
aVwoman
p1316
aa(lp1317
Vnutrition
p1318
aVroundtable
p1319
aVheld
p1320
aVoctober
p1321
aVexplore
p1322
aVhealth
p1323
aVwellness
p1324
aVissue
p1325
aVfood
p1326
aVindustry
p1327
aVimportant
p1328
aVengagement
p1329
aVdecision
p1330
aVform
p1331
aVhealth
p1332
aVwellness
p1333
aVadvisory
p1334
aVfiscal
p1335
aa(lp1336
Vstakeholder
p1337
aVmeeting
p1338
aVfeedback
p1339
aVcsr
p1340
aVreport
p1341
aa(lp1342
Vrespect
p1343
aVhuman
p1344
aVright
p1345
aa(lp1346
Vfreedom
p1347
aVassociation
p1348
aVcollective
p1349
aVbargaining
p1350
aa(lp1351
Vforced
p1352
aVlabor
p1353
aa(lp1354
Vchild
p1355
aVlabor
p1356
aa(lp1357
Vdiscrimination
p1358
aa(lp1359
Vpay
p1360
aVpremium
p1361
aVfarmer
p1362
aVquality
p1363
aVcoffee
p1364
aa(lp1365
Vafrica
p1366
aVasia
p1367
aVpacific
p1368
aa(lp1369
Vsupplier
p1370
aVprovide
p1371
aVpayment
p1372
aVincluding
p1373
aVprice
p1374
aVpaid
p1375
aVfarmer
p1376
aa(lp1377
Vpurchase
p1378
aVseeking
p1379
aVimprove
p1380
aVpurchase
p1381
aVorganic
p1382
aVcoffee
p1383
aa(lp1384
Vpurchase
p1385
aVseeking
p1386
aVimprove
p1387
aVpurchase
p1388
aVfair
p1389
aVtrade
p1390
aVcertified
p1391
aVcoffee
p1392
aa(lp1393
Vpurchase
p1394
aVseeking
p1395
aVimprove
p1396
aVpurchase
p1397
aVconservation
p1398
aVshade
p1399
aVgrown
p1400
aa(lp1401
Vprovide
p1402
aVproducer
p1403
aVprovide
p1404
aVfarmer
p1405
aa(lp1406
Vdonated
p1407
aVrebuilding
p1408
aVarea
p1409
aVnatural
p1410
aVdisaster
p1411
aVproduct
p1412
aVsourced
p1413
aa(lp1414
Vaudit
p1415
aVcocoa
p1416
aVfarm
p1417
aVsustainability
p1418
aa(lp1419
Vbeginning
p1420
aVdairy
p1421
aVproduct
p1422
aVfree
p1423
aa(lp1424
Vstandard
p1425
aVsocial
p1426
aVresponsibility
p1427
aVgood
p1428
aa(lp1429
Vpurchase
p1430
aVgood
p1431
aVlocal
p1432
aVbusiness
p1433
aa(lp1434
Vsite
p1435
aVstore
p1436
aVarea
p1437
aa(lp1438
Vsupport
p1439
aVcommunity
p1440
aVproject
p1441
aVsell
p1442
aVproduct
p1443
aa(lp1444
Vsupport
p1445
aVcommunity
p1446
aVproject
p1447
aVsource
p1448
aVproduct
p1449
aa(lp1450
Vprovides
p1451
aVrelief
p1452
aVrebuilding
p1453
aVfunding
p1454
aVarea
p1455
aVaffected
p1456
aVnatural
p1457
aVdisaster
p1458
aVsource
p1459
aa(lp1460
Vencourages
p1461
aVemployee
p1462
aVvolunteer
p1463
aa(lp1464
Vdonates
p1465
aVcharity
p1466
aVprogram
p1467
aVrequires
p1468
aVcontinuous
p1469
aVdonation
p1470
aa(lp1471
Vencouraging
p1472
aVcustomer
p1473
aVmake
p1474
aVcharitable
p1475
aVdonation
p1476
aa(lp1477
Vsupport
p1478
aVimprovement
p1479
aVlocal
p1480
aVarea
p1481
aVpark
p1482
aa(lp1483
Vadded
p1484
aVhealthy
p1485
aVoption
p1486
aVmenu
p1487
aa(lp1488
Vprovides
p1489
aVnutrition
p1490
aVinformation
p1491
aVstore
p1492
aa(lp1493
Vsound
p1494
aVtax
p1495
aVpolicy
p1496
aa(lp1497
Vsupport
p1498
aVtrade
p1499
aVpromote
p1500
aVtransparency
p1501
aVfair
p1502
aVcompetition
p1503
aa(lp1504
Vpurchased
p1505
aVwind
p1506
aVenergy
p1507
aVoffset
p1508
aVenergy
p1509
aVused
p1510
ag1307
aVcanada
p1511
aa(lp1512
Vmonitor
p1513
aVmeasure
p1514
aVemission
p1515
aa(lp1516
Vcorrugated
p1517
aVhot
p1518
aVbeverage
p1519
aVpercent
p1520
aVpost
p1521
aVconsumer
p1522
aVrecycled
p1523
aVfiber
p1524
aa(lp1525
Voffering
p1526
aVcustomer
p1527
aVdiscount
p1528
aVuse
p1529
aVreusable
p1530
aVcup
p1531
aa(lp1532
Vrequire
p1533
aVwood
p1534
aVused
p1535
aVmake
p1536
aVhardwood
p1537
aVcertified
p1538
aVforest
p1539
aVstewardship
p1540
aVcouncil
p1541
aVfsc
p1542
aVnonprofit
p1543
aVorganization
p1544
aVwood
p1545
aVproduced
p1546
aVsustainable
p1547
aVmanner
p1548
aa(lp1549
Vus
p1550
aVhigh
p1551
aVefficiency
p1552
aVlighting
p1553
aVstore
p1554
aa(lp1555
Vus
p1556
aVwater
p1557
aVefficient
p1558
aVfixture
p1559
aVstore
p1560
aa(lp1561
Vstore
p1562
aVrecycle
p1563
aVpossible
p1564
aa(lp1565
Vrecycles
p1566
aVcoffee
p1567
aVground
p1568
aa(lp1569
Vstore
p1570
aVparticipate
p1571
aVlocal
p1572
aVregional
p1573
aVrecycling
p1574
aVprogram
p1575
aa(lp1576
Vrecycled
p1577
aVold
p1578
aVmat
p1579
aa(lp1580
Vresponsible
p1581
aVwater
p1582
aVsourcing
p1583
aVprotocol
p1584
aa(lp1585
Vmember
p1586
aVsustainable
p1587
aVpackaging
p1588
aa(lp1589
Vprogram
p1590
aa(lp1591
Vcontainer
p1592
aVrecycling
p1593
aVstore
p1594
aa(lp1595
Vsurvey
p1596
aVemployee
p1597
aVissue
p1598
aa(lp1599
Vincreased
p1600
aVwage
p1601
aVmajority
p1602
aVstore
p1603
aVpartner
p1604
ag1307
aVmarket
p1605
aa(lp1606
Vworking
p1607
aVimprove
p1608
aVonline
p1609
aVtool
p1610
aVpublication
p1611
aVappropriate
p1612
aa(lp1613
Vglobal
p1614
aVlook
p1615
aVinternal
p1616
aVsourcing
p1617
aVstrategy
p1618
aVjob
p1619
aa(lp1620
Vallows
p1621
aVemployee
p1622
aVvoice
p1623
aVspecific
p1624
aVconcern
p1625
aa(lp1626
Vemployee
p1627
aVreceive
p1628
aVtotal
p1629
aVpay
p1630
aVpackage
p1631
aVincludes
p1632
aVrange
p1633
aVbenefit
p1634
aVincludes
p1635
aVmedical
p1636
aValternative
p1637
aVhealth
p1638
aVcare
p1639
aVcompany
p1640
aVstock
p1641
aa(lp1642
Vbenefit
p1643
aVregion
p1644
aVlocal
p1645
aVissue
p1646
aa(lp1647
Vreach
p1648
aVnewly
p1649
aVemployed
p1650
aVworker
p1651
aVquestion
p1652
aVhealth
p1653
aa(lp1654
Vtake
p1655
aVrole
p1656
aVemployee
p1657
aVhealth
p1658
aVprogram
p1659
aVseek
p1660
aVprovide
p1661
aVtool
p1662
aVmonitor
p1663
aVimprove
p1664
aVhealth
p1665
aa(lp1666
Vrecognizes
p1667
aVemployee
p1668
aVhard
p1669
aVwork
p1670
aVjob
p1671
aa(lp1672
Vsupport
p1673
aVemployee
p1674
aVfinancial
p1675
aVsituation
p1676
aVresult
p1677
aa(lp1678
Vtrain
p1679
aVemployee
p1680
aa(lp1681
Vmeasure
p1682
aVworkplace
p1683
aVdiversity
p1684
aa(lp1685
Vplant
p1686
aVtree
p1687
aVpark
p1688
aa(lp1689
Vdedicated
p1690
aVsustainability
p1691
aVcompany
p1692
aa(lp1693
Vsurveyed
p1694
aVstakeholder
p1695
aVconcern
p1696
aa(lp1697
Valcohol
p1698
aVresponsibility
p1699
aVtraining
p1700
aVemployee
p1701
aa(lp1702
Vinternal
p1703
aVpolicy
p1704
aVregulation
p1705
aVaccordance
p1706
aVlaw
p1707
aVregulation
p1708
aa(lp1709
Vcommittee
p1710
aVdedicated
p1711
aVbest
p1712
aVpractice
p1713
aVbusiness
p1714
aa(lp1715
Vallows
p1716
aVemployee
p1717
aVvoice
p1718
aVspecific
p1719
aVconcern
p1720
aa(lp1721
Vreduce
p1722
aVunderage
p1723
aVdrinking
p1724
aVenforcement
p1725
aVcurrent
p1726
aVlaw
p1727
aVencouraging
p1728
aVgovernment
p1729
aVenforce
p1730
aVminimum
p1731
aVpurchase
p1732
aVage
p1733
aa(lp1734
Vengage
p1735
aVmarketing
p1736
aVencourage
p1737
aVexcessive
p1738
aVconsumption
p1739
aa(lp1740
Vreduce
p1741
aVdrinking
p1742
aVdriving
p1743
aVcollaborating
p1744
aVgovernment
p1745
aVnon
p1746
aVorganization
p1747
aVeducate
p1748
aVenforce
p1749
aVexisting
p1750
aVlaw
p1751
aa(lp1752
Vfounding
p1753
aVmember
p1754
aVinternational
p1755
aVcenter
p1756
aValcohol
p1757
aVpolicy
p1758
aa(lp1759
Vass
p1760
aVwatershed
p1761
aVrisk
p1762
aVbrewery
p1763
aVworldwide
p1764
aa(lp1765
Vengage
p1766
aVgrower
p1767
aVwater
p1768
aVstewardship
p1769
aVactivity
p1770
aVgrower
p1771
aVgroup
p1772
aa(lp1773
Vencourages
p1774
aVemployee
p1775
aVconserve
p1776
aVwater
p1777
aa(lp1778
Vencourages
p1779
aVcustomer
p1780
aVconserve
p1781
aVwater
p1782
aa(lp1783
Vencourages
p1784
aVemployee
p1785
aVvolunteer
p1786
aa(lp1787
g1307
aVbrewery
p1788
aVcommunity
p1789
aVpartnership
p1790
aVpromote
p1791
aVwater
p1792
aVstewardship
p1793
aa(lp1794
Vsponsor
p1795
aVcarbon
p1796
aVdisclosure
p1797
aVwater
p1798
aVproject
p1799
aVdisclosure
p1800
aa(lp1801
Vblue
p1802
aVwork
p1803
aVprotect
p1804
aVwater
p1805
aVsource
p1806
aa(lp1807
Venergy
p1808
aVefficient
p1809
aVlighting
p1810
aa(lp1811
Vautomatic
p1812
aVlight
p1813
aa(lp1814
Vvariable
p1815
aVspeed
p1816
aVdrive
p1817
aa(lp1818
Vdistribution
p1819
aVsite
p1820
aa(lp1821
Vupdated
p1822
aVair
p1823
aVsystem
p1824
aVsite
p1825
aVcanada
p1826
aa(lp1827
Vmonitor
p1828
aVmeasure
p1829
aVemission
p1830
aa(lp1831
Vcatch
p1832
aVcarbon
p1833
aVreleased
p1834
aVfermentation
p1835
aa(lp1836
Vbrewing
p1837
aVbyproduct
p1838
aVused
p1839
aVcreate
p1840
aVmethane
p1841
aVfuel
p1842
aVboiler
p1843
aa(lp1844
Vspent
p1845
aVgrain
p1846
aVwheat
p1847
aVsold
p1848
aVfarmer
p1849
aVfeed
p1850
aVfertilizer
p1851
aa(lp1852
Vmake
p1853
aVdesign
p1854
aVpackaging
p1855
aVrecyclable
p1856
aa(lp1857
Vpackaging
p1858
aVrecycled
p1859
aVcontent
p1860
aa(lp1861
Vreported
p1862
aVcarbon
p1863
aVdisclosure
p1864
aVproject
p1865
aa(lp1866
Vsignatory
p1867
aVglobal
p1868
aVcompact
p1869
aa(lp1870
Vsurvey
p1871
aVemployee
p1872
aa(lp1873
Vprovides
p1874
aVopportunity
p1875
aVemployment
p1876
aVadvancement
p1877
aVwoman
p1878
aVcompany
p1879
aa(lp1880
Vprovide
p1881
aVopportunity
p1882
aVemployment
p1883
aVadvancement
p1884
aVethnicity
p1885
aVcompany
p1886
aa(lp1887
Vsignificant
p1888
aVbenefit
p1889
aVemployee
p1890
aa(lp1891
Voffer
p1892
aVfitness
p1893
aVcenter
p1894
aVemployee
p1895
aa(lp1896
Voffer
p1897
aVtesting
p1898
aVemployee
p1899
aa(lp1900
Voffer
p1901
aVrisk
p1902
aVassessment
p1903
aVemployee
p1904
aa(lp1905
Voffer
p1906
aVhealth
p1907
aVimprovement
p1908
aVprogram
p1909
aVemployee
p1910
aa(lp1911
Vcover
p1912
aVcare
p1913
aVmedical
p1914
aVinsurance
p1915
aa(lp1916
Vteam
p1917
aVsafety
p1918
aa(lp1919
Vinvest
p1920
aVprofit
p1921
aVcommunity
p1922
aa(lp1923
Vteam
p1924
aVbuilding
p1925
aVactivity
p1926
aVbenefit
p1927
aVcommunity
p1928
aa(lp1929
Vstandard
p1930
aVcode
p1931
aVconduct
p1932
aVsupplier
p1933
aa(lp1934
Vcoffee
p1935
aVpartner
p1936
aVquality
p1937
aVearns
p1938
aVpremium
p1939
aVprice
p1940
aVsubstantially
p1941
aVhigher
p1942
aVmarket
p1943
aVprice
p1944
aVfair
p1945
aVtrade
p1946
aVcertified
p1947
aVprice
p1948
aa(lp1949
Vsupport
p1950
aVempowering
p1951
aVpeople
p1952
aVrural
p1953
aVarea
p1954
aVbusiness
p1955
aVtraining
p1956
aa(lp1957
Vsupport
p1958
aVself
p1959
aVhelp
p1960
aVassociation
p1961
aa(lp1962
Vsupported
p1963
aVschool
p1964
aa(lp1965
Vcoffee
p1966
aVkid
p1967
aa(lp1968
Vground
p1969
aVhealth
p1970
aa(lp1971
Vheat
p1972
aVexchange
p1973
aVtechnology
p1974
aVrecovers
p1975
aVroasting
p1976
aVheat
p1977
aVresulting
p1978
aVnatural
p1979
aVgas
p1980
aVused
p1981
aa(lp1982
Vuse
p1983
aVnatural
p1984
aVlight
p1985
aVlatest
p1986
aVlighting
p1987
aVtechnology
p1988
aVreduces
p1989
aVenergy
p1990
aVuse
p1991
aa(lp1992
Venvironmentally
p1993
aVsensitive
p1994
aVhigh
p1995
aVefficiency
p1996
aVhvac
p1997
aVsystem
p1998
aVreduce
p1999
aVgreenhouse
p2000
aVgas
p2001
aVemission
p2002
aa(lp2003
Vwater
p2004
aVefficient
p2005
aVlandscaping
p2006
aVhigh
p2007
aVefficiency
p2008
aVirrigation
p2009
aVreduces
p2010
aVwater
p2011
aVusage
p2012
aa(lp2013
Vrecycled
p2014
aVmaterial
p2015
aVused
p2016
aVincluding
p2017
aVcoffee
p2018
aVchaff
p2019
aVproduct
p2020
aVroasting
p2021
aa(lp2022
Vconstruction
p2023
aVmaterial
p2024
aVlocal
p2025
aVregional
p2026
aVsource
p2027
aa(lp2028
Vconstruction
p2029
aVwaste
p2030
aVdiverted
p2031
aVlandfill
p2032
aVrecycling
p2033
aVconstruction
p2034
aa(lp2035
Vpay
p2036
aVworker
p2037
aVminimum
p2038
aVwage
p2039
aa(lp2040
Vfreedom
p2041
aVassociation
p2042
aVcollective
p2043
aVbargaining
p2044
aa(lp2045
Vfair
p2046
aVwork
p2047
aVhour
p2048
aa(lp2049
Vprovides
p2050
aVemployee
p2051
aa(lp2052
Vpay
p2053
aVannual
p2054
aVpaid
p2055
aVcompensation
p2056
aVbenefit
p2057
aa(lp2058
Vprovides
p2059
aVworker
p2060
aa(lp2061
Vprovides
p2062
aVscholarship
p2063
aVworker
p2064
aVstudent
p2065
aa(lp2066
Vcreated
p2067
aVsustainability
p2068
aVcommittee
p2069
aVcalled
p2070
aVproject
p2071
ag229
ag229
aVd
p2072
aVsocial
p2073
aVenvironmental
p2074
aVeconomic
p2075
aVdevelopment
p2076
aa(lp2077
Vestablished
p2078
aVteam
p2079
aVemployee
p2080
aVcreate
p2081
aVinternal
p2082
aVchange
p2083
aVcompany
p2084
aa(lp2085
Vraphael
p2086
aVhouse
p2087
aVdomestic
p2088
aVviolence
p2089
aVagency
p2090
aVdedicated
p2091
aVpartner
p2092
aVviolence
p2093
aVsupport
p2094
aVraphael
p2095
aVhouse
p2096
aVquarterly
p2097
aVdonation
p2098
aVfund
p2099
aVraising
p2100
aVevent
p2101
aVadditionally
p2102
aVdonate
p2103
aVcoffee
p2104
aVnon
p2105
aVprofit
p2106
aVincluding
p2107
aVstreet
p2108
aVroot
p2109
aVnonprofit
p2110
aVnewspaper
p2111
aVhelp
p2112
aVpeople
p2113
aa(lp2114
Vpartnered
p2115
aVcoffee
p2116
aVkid
p2117
aVcharity
p2118
aVwork
p2119
aVimprove
p2120
aVeducation
p2121
aVhealth
p2122
aVcare
p2123
aVeconomic
p2124
aVfood
p2125
aVsecurity
p2126
aVcoffee
p2127
aVfarmer
p2128
aVamerica
p2129
aa(lp2130
Vpartnered
p2131
aVmercy
p2132
aVcorp
p2133
aVwork
p2134
aVimprove
p2135
aVcondition
p2136
aVstate
p2137
aVlike
p2138
aVconflict
p2139
aVzone
p2140
aVlike
p2141
aVcountry
p2142
aVnatural
p2143
aVdisaster
p2144
aVlike
p2145
aa(lp2146
Vencourages
p2147
aVemployee
p2148
aVvolunteer
p2149
aa(lp2150
Vpurchase
p2151
aVorganic
p2152
aVcoffee
p2153
aa(lp2154
Vpurchase
p2155
aVdirect
p2156
aVtrade
p2157
aVcoffee
p2158
aa(lp2159
Vpurchase
p2160
aVfair
p2161
aVtrade
p2162
aVcertified
p2163
aVcoffee
p2164
aa(lp2165
Vglobal
p2166
aVcoffee
p2167
aVquality
p2168
aVresearch
p2169
aVinitiative
p2170
aVimprove
p2171
aVcoffee
p2172
aVquality
p2173
aVglobal
p2174
aVscale
p2175
aa(lp2176
Vfunded
p2177
aVsustainability
p2178
aVtracking
p2179
aVreporting
p2180
aVtool
p2181
aVstart
p2182
aVcollect
p2183
aVsustainability
p2184
aVdata
p2185
aa(lp2186
Vmonitor
p2187
aVmeasure
p2188
aVemission
p2189
aa(lp2190
Vus
p2191
aVenergy
p2192
aVefficient
p2193
aa(lp2194
Vautomatic
p2195
aVlight
p2196
aa(lp2197
Vcompany
p2198
aVwide
p2199
aVpower
p2200
aVmanagement
p2201
aVsetting
p2202
aVsave
p2203
aVelectricity
p2204
aa(lp2205
Vplant
p2206
aVshut
p2207
aVprocedure
p2208
aVsave
p2209
aVenergy
p2210
aa(lp2211
Vrecycle
p2212
aVrecyclable
p2213
aVmaterial
p2214
aVcardboard
p2215
aVglass
p2216
aVmetal
p2217
aVplastic
p2218
aVpaper
p2219
aVwood
p2220
aVadded
p2221
aVoffice
p2222
aVrecycling
p2223
aa(lp2224
Vtask
p2225
aVforce
p2226
aVcreated
p2227
aVseparation
p2228
aVprocedure
p2229
aVplant
p2230
aa(lp2231
Vnearly
p2232
aVeliminated
p2233
aVpaper
p2234
aVcup
p2235
aVoffice
p2236
aVarea
p2237
aa(lp2238
Vcommunity
p2239
aVoutreach
p2240
aVpartner
p2241
aVbag
p2242
aa(lp2243
Vencourages
p2244
aVemployee
p2245
aVexplore
p2246
aValternative
p2247
aVtransportation
p2248
aVmethod
p2249
aVincluding
p2250
aVpublic
p2251
aVtransportation
p2252
aVcar
p2253
aVend
p2254
aVgoal
p2255
aVreducing
p2256
aVcar
p2257
aVroad
p2258
aa(lp2259
Vdonates
p2260
aVsupport
p2261
aVcoffee
p2262
aVgrower
p2263
aVquality
p2264
aVlife
p2265
aa(lp2266
Vdonates
p2267
aVcoffee
p2268
aVmerchandise
p2269
aVlocal
p2270
aVcommunity
p2271
aa(lp2272
Vpower
p2273
aVmanagement
p2274
aVsetting
p2275
aVcomputer
p2276
aa(lp2277
Vcompost
p2278
aVwaste
p2279
aa(lp2280
Voffered
p2281
aVcompostable
p2282
aVcup
p2283
aVcustomer
p2284
aa(lp2285
Vmonth
p2286
aValternative
p2287
aVtransportation
p2288
aVday
p2289
aa(lp2290
Vpurchase
p2291
aVrenewable
p2292
aVenergy
p2293
aVcredit
p2294
aa(lp2295
Veliminated
p2296
aVwater
p2297
aVoffice
p2298
aa(lp2299
Vprinting
p2300
aa(lp2301
Vrecycled
p2302
aVoffice
p2303
aVpaper
p2304
aVbox
p2305
aa(lp2306
Vus
p2307
aVgreen
p2308
aVcleaning
p2309
aVproduct
p2310
aa(lp2311
Vcode
p2312
aVconduct
p2313
aVstandard
p2314
aVsupplier
p2315
aa(lp2316
g1307
aVpurchase
p2317
aVorder
p2318
aVadhere
p2319
aVcode
p2320
aa(lp2321
Vlaunched
p2322
aa(lp2323
Vpromotes
p2324
aVeducation
p2325
aa(lp2326
Vchild
p2327
aVlabor
p2328
aa(lp2329
Vfacility
p2330
aVcertified
p2331
aVhighest
p2332
aVlevel
p2333
aVsafe
p2334
aVquality
p2335
aVfood
p2336
aVlevel
p2337
aVcertification
p2338
aa(lp2339
Vtrack
p2340
aVfield
p2341
aVmeet
p2342
aa(lp2343
Vsupport
p2344
aVafrica
p2345
aVcocoa
p2346
aVlivelihood
p2347
aVprogram
p2348
aa(lp2349
Vminimize
p2350
aVuse
p2351
aVpaper
p2352
aa(lp2353
Veducate
p2354
aVemployee
p2355
aVrecycling
p2356
aa(lp2357
Venergy
p2358
aVefficient
p2359
aVlighting
p2360
aa(lp2361
Vcompressed
p2362
aVair
p2363
aVimprovement
p2364
aVhvac
p2365
aa(lp2366
Vrecovery
p2367
aa(lp2368
Vproject
p2369
aa(lp2370
Vreduce
p2371
aVwater
p2372
aVusage
p2373
aVboiler
p2374
aa(lp2375
Vus
p2376
aVproduct
p2377
aVrecycled
p2378
aVreused
p2379
aVcontent
p2380
aa(lp2381
Vrecycles
p2382
aVwaste
p2383
aa(lp2384
Voperating
p2385
aVplant
p2386
aVworld
p2387
aa(lp2388
Vinstalled
p2389
aVstanding
p2390
aVcommon
p2391
aVarea
p2392
aVoffice
p2393
aa(lp2394
Vfitness
p2395
aVcenter
p2396
aa(lp2397
Vhire
p2398
aVveteran
p2399
aa(lp2400
Vsupport
p2401
aVdiverse
p2402
aVpotential
p2403
aVemployee
p2404
aa(lp2405
Vachieved
p2406
aVperfect
p2407
aVhuman
p2408
aVright
p2409
aVcampaign
p2410
aVcorporate
p2411
aa(lp2412
Vsurvey
p2413
aVemployee
p2414
aa(lp2415
Vdonate
p2416
aVcharity
p2417
aa(lp2418
Vencourages
p2419
aVemployee
p2420
aVvolunteer
p2421
aa(lp2422
Vpercent
p2423
aVtotal
p2424
aVspending
p2425
aVraw
p2426
aVmaterial
p2427
aVpackaging
p2428
aVmaterial
p2429
aVenergy
p2430
aVform
p2431
aVspending
p2432
aVlocal
p2433
aVsupplier
p2434
aa(lp2435
Vrecyclable
p2436
aVjug
p2437
aVpackaging
p2438
aa(lp2439
Vus
p2440
aVdigester
p2441
aa(lp2442
Venergy
p2443
aVefficient
p2444
aVboiler
p2445
aVenergy
p2446
aVefficient
p2447
aa(lp2448
Vgiving
p2449
aVprogram
p2450
aVcorporate
p2451
aVcontribution
p2452
aVprogram
p2453
aVsupport
p2454
aVspecific
p2455
aVproject
p2456
aVbetter
p2457
aVcommunity
p2458
aVemployee
p2459
aVgift
p2460
aVprogram
p2461
aVproduct
p2462
aVdonation
p2463
aVprogram
p2464
aa(lp2465
Vestablish
p2466
aVcomprehensive
p2467
aVfarm
p2468
aVanimal
p2469
aVassessment
p2470
aVtool
p2471
aa(lp2472
Vdairy
p2473
aVcow
p2474
aVspecific
p2475
aVprofessional
p2476
aVmatch
p2477
aVneed
p2478
aVhealth
p2479
aVmilk
p2480
aVproduction
p2481
aVodor
p2482
aVreduction
p2483
aa(lp2484
Vfarmer
p2485
aVmethane
p2486
aVdigester
p2487
aVhelp
p2488
aVoffset
p2489
aVodor
p2490
aVmethane
p2491
aVgas
p2492
aVsolid
p2493
aVwaste
p2494
aVsolid
p2495
aVwaste
p2496
aVreused
p2497
aVfertilizer
p2498
aVmethane
p2499
aVgas
p2500
aVused
p2501
aVheat
p2502
aVgenerate
p2503
aVelectricity
p2504
aVused
p2505
aVpower
p2506
aVfarm
p2507
aVsold
p2508
aVutility
p2509
aVcompany
p2510
aa(lp2511
Vfeed
p2512
aVcow
p2513
aVproduce
p2514
aVcrop
p2515
aa(lp2516
Vus
p2517
aVtreated
p2518
aVwastewater
p2519
aVcrop
p2520
aa(lp2521
Vtreated
p2522
aVwastewater
p2523
aVlocal
p2524
aVwater
p2525
aVsource
p2526
aa(lp2527
Vdairy
p2528
aVcow
p2529
aVforage
p2530
aVgrass
p2531
aVhuman
p2532
aVprocess
p2533
aa(lp2534
Vfacility
p2535
aVmanure
p2536
aVmechanical
p2537
aVwater
p2538
aa(lp2539
Vstore
p2540
aVmanure
p2541
aVfacility
p2542
aVcalled
p2543
aVdesigned
p2544
aVsafely
p2545
aVused
p2546
aVapplication
p2547
aa(lp2548
Vcompost
p2549
aVused
p2550
aa(lp2551
Vconduct
p2552
aVenergy
p2553
aVaudit
p2554
aVplant
p2555
aa(lp2556
Vemployee
p2557
aVinvolvement
p2558
aVcontinuous
p2559
aVimprovement
p2560
aVvisual
p2561
aVproduction
p2562
aVmeeting
p2563
aVvpm
p2564
aVvpm
p2565
aVprocess
p2566
aVallows
p2567
aVplant
p2568
aVemployee
p2569
aVparticipate
p2570
aVproblem
p2571
aVproblem
p2572
aa(lp2573
Vdeveloped
p2574
aVaudit
p2575
aVprocess
p2576
aVensure
p2577
aVplant
p2578
aVvpm
p2579
aVguideline
p2580
aa(lp2581
Vmilk
p2582
aVdelivered
p2583
aVcustomer
p2584
aVtraditional
p2585
aVmilk
p2586
aVcase
p2587
aa(lp2588
Vnew
p2589
aVpackage
p2590
aVdesign
p2591
aVentirely
p2592
aVuse
p2593
aVplastic
p2594
aVmilk
p2595
aVcase
p2596
aVdistribution
p2597
aa(lp2598
Vneed
p2599
aVcardboard
p2600
aVbox
p2601
aVpackaging
p2602
aa(lp2603
Vus
p2604
aVcow
p2605
aVwater
p2606
aVwater
p2607
aVmilk
p2608
aVproduction
p2609
aVpurpose
p2610
aa(lp2611
Vus
p2612
aVtruck
p2613
aVgreater
p2614
aVcapacity
p2615
aa(lp2616
Vus
p2617
aVenergy
p2618
aVefficient
p2619
aVrefrigeration
p2620
aVunit
p2621
aa(lp2622
Vreduced
p2623
aVengine
p2624
aVtime
p2625
aa(lp2626
Vplaced
p2627
aVboard
p2628
aVcomputer
p2629
aVtractor
p2630
aVprovide
p2631
aVcontinuous
p2632
aVdriver
p2633
aVfeedback
p2634
aa(lp2635
Vpurchased
p2636
aVultra
p2637
aVlight
p2638
aVtractor
p2639
aa(lp2640
Vset
p2641
aVspeed
p2642
aVmaximum
p2643
aa(lp2644
Vset
p2645
aVtractor
p2646
aVengine
p2647
aVshut
p2648
aa(lp2649
Vplaced
p2650
aVpower
p2651
aVunit
p2652
aVtractor
p2653
aVpower
p2654
aVcab
p2655
aa(lp2656
Vpurchased
p2657
aVvehicle
p2658
aa(lp2659
Venergy
p2660
aVefficient
p2661
aVautomatic
p2662
aa(lp2663
Vchange
p2664
aVfuel
p2665
aVfilter
p2666
aVinstead
p2667
aVmile
p2668
aa(lp2669
Vcheck
p2670
aVair
p2671
aVpressure
p2672
aVdaily
p2673
aa(lp2674
Vinitiated
p2675
aVchain
p2676
aVprogram
p2677
aVeffective
p2678
aVspring
p2679
aVfall
p2680
aVsaving
p2681
aVpound
p2682
aVweight
p2683
aVvehicle
p2684
aa(lp2685
Vuse
p2686
aVrail
p2687
aVline
p2688
aVswitching
p2689
aVcapability
p2690
aa(lp2691
Vcustomer
p2692
aVrail
p2693
aVwork
p2694
aVdevelop
p2695
aVtrans
p2696
aVload
p2697
aVprogram
p2698
aa(lp2699
Vuse
p2700
aVcontainer
p2701
aVpossible
p2702
aa(lp2703
Vsource
p2704
aVsmall
p2705
aVbusiness
p2706
aVapplicable
p2707
aa(lp2708
Vredesigned
p2709
aVcap
p2710
aVlighter
p2711
aVplastic
p2712
aVjug
p2713
aa(lp2714
Vspends
p2715
aVsmall
p2716
aVbusiness
p2717
aVwoman
p2718
aVowned
p2719
aVbusiness
p2720
aVminority
p2721
aVowned
p2722
aVbusiness
p2723
aVveteran
p2724
aVowned
p2725
aVbusiness
p2726
aa(lp2727
Vpurchase
p2728
aVcorrugated
p2729
aVmaterial
p2730
aVsustainable
p2731
aVforest
p2732
aVinitiative
p2733
aVcertified
p2734
aVsupplier
p2735
aa(lp2736
Vfat
p2737
aVlevel
p2738
aVsingle
p2739
aVserve
p2740
aVmilk
p2741
aVlowered
p2742
aa(lp2743
Vadded
p2744
aVfiber
p2745
aVprobiotic
p2746
aVbased
p2747
aVyogurt
p2748
aa(lp2749
Vsugar
p2750
aVlevel
p2751
aVyogurt
p2752
aVlowered
p2753
aVreplacing
p2754
aVhigh
p2755
aVcorn
p2756
aa(lp2757
Vfree
p2758
aVmilk
p2759
aa(lp2760
Vprobiotic
p2761
aVadded
p2762
aa(lp2763
Vsponsor
p2764
aVcommunity
p2765
aVactivity
p2766
aVevent
p2767
aa(lp2768
Vattract
p2769
aVfemale
p2770
aVminority
p2771
aVcompany
p2772
aVrecruiting
p2773
aVeffort
p2774
aVcommunity
p2775
aVoutreach
p2776
aVuniversity
p2777
aVrecruiting
p2778
aVprogram
p2779
aa(lp2780
Vdiscrimination
p2781
aa(lp2782
Vtrain
p2783
aVemployee
p2784
aa(lp2785
Vemployee
p2786
aVreceive
p2787
aVyearly
p2788
aVsafety
p2789
aVtraining
p2790
aa(lp2791
Voffer
p2792
aVdental
p2793
aVvision
p2794
aVpaid
p2795
aVtime
p2796
ag1019
aVtransportation
p2797
aVemployee
p2798
aVassistance
p2799
aVeligible
p2800
aVemployee
p2801
aa(lp2802
Vprocessed
p2803
aVchlorine
p2804
aVfree
p2805
aVtotally
p2806
aVchlorine
p2807
aVfree
p2808
aVpcf
p2809
aVtcf
p2810
aa(lp2811
Vprocessed
p2812
aVchlorine
p2813
aVfree
p2814
aVtotally
p2815
aVchlorine
p2816
aVfree
p2817
aVpcf
p2818
aVtcf
p2819
aa(lp2820
Vpost
p2821
aVconsumer
p2822
aVrecycled
p2823
aVpaper
p2824
aa(lp2825
Vpost
p2826
aVconsumer
p2827
aVrecycled
p2828
aVpaper
p2829
aa(lp2830
Vpost
p2831
aVconsumer
p2832
aVrecycled
p2833
aVpaper
p2834
aa(lp2835
Vdevelop
p2836
aVproduct
p2837
aVline
p2838
aVusing
p2839
aVpaper
p2840
aVagricultural
p2841
aVbyproduct
p2842
aa(lp2843
Vdevelop
p2844
aVproduct
p2845
aVline
p2846
aVusing
p2847
aVpaper
p2848
aVagricultural
p2849
aVbyproduct
p2850
aa(lp2851
Vdevelop
p2852
aVproduct
p2853
aVline
p2854
aVusing
p2855
aVpaper
p2856
aVagricultural
p2857
aVbyproduct
p2858
aa(lp2859
Vinked
p2860
aVrecycled
p2861
aa(lp2862
Vinked
p2863
aVrecycled
p2864
aa(lp2865
Vdiversity
p2866
aVforum
p2867
aVfocus
p2868
aVgroup
p2869
aa(lp2870
Vemployee
p2871
aVtraining
p2872
aa(lp2873
Vworkforce
p2874
aVsurvey
p2875
aa(lp2876
Veconomic
p2877
aVcharitable
p2878
aVpartnership
p2879
aa(lp2880
Vface
p2881
aVface
p2882
aVmeeting
p2883
aVsupplier
p2884
aa(lp2885
Vsupplier
p2886
aVsurvey
p2887
aa(lp2888
Vlocal
p2889
aVlaw
p2890
aa(lp2891
Vethic
p2892
aVtraining
p2893
aa(lp2894
Vforced
p2895
aVlabor
p2896
aa(lp2897
Vchild
p2898
aVlabor
p2899
aa(lp2900
Vfreedom
p2901
aVassociation
p2902
aVcollective
p2903
aVbargaining
p2904
aa(lp2905
Vforest
p2906
aa(lp2907
Vproduct
p2908
aVprocessing
p2909
aVtree
p2910
aVpaper
p2911
aVsource
p2912
aVrenewable
p2913
aVenergy
p2914
aVprovide
p2915
aVapproximately
p2916
aVpercent
p2917
aVpower
p2918
aVmill
p2919
aa(lp2920
Voffer
p2921
aVrecycled
p2922
aVfiber
p2923
aVpaper
p2924
aa(lp2925
Vmake
p2926
aVdesign
p2927
aVproduct
p2928
aVrecyclable
p2929
aa(lp2930
Voffer
p2931
aVnew
p2932
aVrecycled
p2933
aVfiber
p2934
aVpaper
p2935
aa(lp2936
Vpackaging
p2937
aVrange
p2938
aVus
p2939
aVpercent
p2940
aVplastic
p2941
aa(lp2942
Vusing
p2943
aVplastic
p2944
aVplant
p2945
aVbased
p2946
aVplastic
p2947
aValternative
p2948
aVfossil
p2949
aVbased
p2950
aVplastic
p2951
aVcoating
p2952
aVcup
p2953
aa(lp2954
Vseries
p2955
aVmoisture
p2956
aVresistant
p2957
aVpackaging
p2958
aVoffer
p2959
aVrecyclable
p2960
aValternative
p2961
aVpetroleumbased
p2962
aVuse
p2963
aVmeat
p2964
aVagricultural
p2965
aVproduce
p2966
aa(lp2967
Vtraditional
p2968
aVpetroleumbased
p2969
aVcreate
p2970
aVrecyclable
p2971
aVcompostable
p2972
aVbiodegradable
p2973
aValternative
p2974
aa(lp2975
Vtree
p2976
aVgrowing
p2977
aVprogram
p2978
aVprovides
p2979
aVemployment
p2980
aVlocal
p2981
aVcommunity
p2982
aVconsistent
p2983
aVsource
p2984
aVincome
p2985
aVthousand
p2986
aVsmall
p2987
aVlandowner
p2988
aVfamily
p2989
aVmaking
p2990
aVuse
p2991
aVland
p2992
aVprovide
p2993
aa(lp2994
Vcompany
p2995
aVprovides
p2996
aVcommunity
p2997
aVsupport
p2998
aVvarious
p2999
aVactivity
p3000
aVhelping
p3001
aVeducation
p3002
aVrural
p3003
aVmedical
p3004
aVservice
p3005
aVimproving
p3006
aVavailability
p3007
aVdrinking
p3008
aVwater
p3009
aa(lp3010
Vreport
p3011
aVimpact
p3012
aVoperation
p3013
aVforest
p3014
aVfootprint
p3015
aVdisclosure
p3016
aVproject
p3017
aa(lp3018
Vconverted
p3019
aVnatural
p3020
aVforest
p3021
aa(lp3022
Vmajority
p3023
aVused
p3024
aVmill
p3025
aVair
p3026
aVemission
p3027
aVcontrol
p3028
aVdevice
p3029
aVoil
p3030
aVlarge
p3031
aVsourced
p3032
aVcompany
p3033
aVbyproduct
p3034
aVmetal
p3035
aa(lp3036
Vselect
p3037
aVlocal
p3038
aVsupplier
p3039
aVpossible
p3040
aVcut
p3041
aVnumber
p3042
aVmile
p3043
aa(lp3044
Vanalyze
p3045
aVsupply
p3046
aVchain
p3047
aVminimize
p3048
aVmile
p3049
aVsupplier
p3050
aVnetwork
p3051
aVbox
p3052
aVplant
p3053
aa(lp3054
Vmill
p3055
aVuse
p3056
aVhigh
p3057
aVefficiency
p3058
aVcombined
p3059
aVheat
p3060
aVpower
p3061
aVsystem
p3062
aVgenerate
p3063
aVthermal
p3064
aVenergy
p3065
aVelectricity
p3066
aVneed
p3067
aa(lp3068
Vmeasure
p3069
aVmonitor
p3070
aVemission
p3071
aa(lp3072
Vprocess
p3073
aVwater
p3074
aVdiverted
p3075
aVmile
p3076
aVlong
p3077
aVacre
p3078
aVwetland
p3079
aVsite
p3080
aVallowing
p3081
aVnatural
p3082
aVtree
p3083
aVtreat
p3084
aVwater
p3085
aVnutrient
p3086
aVtreated
p3087
aVwater
p3088
aVwetland
p3089
aVecological
p3090
aVvalue
p3091
aVincreased
p3092
aVwater
p3093
aVquality
p3094
aa(lp3095
Vuse
p3096
aVlocal
p3097
aVregional
p3098
aVdistribution
p3099
aVcenter
p3100
aVreduce
p3101
aVdistance
p3102
aVproduct
p3103
aVcustomer
p3104
aa(lp3105
Vcompleted
p3106
aVyear
p3107
aVlife
p3108
aVinitiative
p3109
aVhelp
p3110
aVfocus
p3111
aVeliminating
p3112
aVfatality
p3113
aVinjury
p3114
aa(lp3115
Vprovide
p3116
aVincentive
p3117
aVparticipation
p3118
aVhealthy
p3119
aVlife
p3120
aVactivity
p3121
aVreduction
p3122
aVmedical
p3123
aVinsurance
p3124
aVpremium
p3125
aa(lp3126
Vbegan
p3127
aVfocusing
p3128
aVimproving
p3129
aVproportion
p3130
aVminority
p3131
aVwoman
p3132
aVspecific
p3133
aVfunction
p3134
aVmanufacturing
p3135
aVsale
p3136
ag1307
aVlarge
p3137
aVproportion
p3138
aVwhite
p3139
aVmale
p3140
aVworking
p3141
aa(lp3142
Vencourages
p3143
aVemployee
p3144
aVvolunteer
p3145
aa(lp3146
S'employ'
p3147
aS'employee'
p3148
aS'philz'
p3149
aS'roasting'
p3150
aS'location'
p3151
aa(lp3152
S'produce'
p3153
aS'purchased'
p3154
aS'delivered'
p3155
aS'daily'
p3156
aS'maximum'
p3157
aS'result'
p3158
aa(lp3159
S'test'
p3160
aS'analyze'
p3161
aS'protein'
p3162
aS'dna'
p3163
aS'important'
p3164
aS'place'
p3165
aS'production'
p3166
aS'rapid'
p3167
aS'site'
p3168
aS'method'
p3169
aS'gmo'
p3170
aa(lp3171
S'catch'
p3172
aS'level'
p3173
aS'continually'
p3174
aS'maintain'
p3175
aS'high'
p3176
aS'productivity'
p3177
aS'target'
p3178
aS'population'
p3179
aS'associated'
p3180
aS'ecological'
p3181
aS'community'
p3182
aS'relative'
p3183
aS'potential'
p3184
aS'productivity'
p3185
aa(lp3186
S'philz'
p3187
aS'employee'
p3188
aS'get'
p3189
aS'free'
p3190
aS'philz'
p3191
aS'mug'
p3192
aS'use'
p3193
aS'instead'
p3194
aS'paper'
p3195
aS'cup'
p3196
aa(lp3197
S'recycle'
p3198
aS'recyclable'
p3199
aS'material'
p3200
aS'cardboard'
p3201
aS'glass'
p3202
aS'metal'
p3203
aS'plastic'
p3204
aS'paper'
p3205
aS'wood'
p3206
aa(lp3207
S'used'
p3208
aS'leed'
p3209
aS'certified'
p3210
aS'recycled'
p3211
aS'material'
p3212
aS'lounge'
p3213
aS'e'
p3214
aS'g'
p3215
aS'bar'
p3216
aS'entirely'
p3217
aS'recycled'
p3218
aS'glass'
p3219
aS'wall'
p3220
aS'covered'
p3221
aS'environmentally'
p3222
aS'sustainable'
p3223
aS'major'
p3224
aS'design'
p3225
aS'effect'
p3226
aS'glass'
p3227
aS'bottle'
p3228
aS'wall'
p3229
aS'recycled'
p3230
aS'milk'
p3231
aS'bottle'
p3232
aa(lp3233
S'pcr'
p3234
aS'chain'
p3235
aS'test'
p3236
aS'method'
p3237
aS'dna'
p3238
aS'directly'
p3239
aS'conducted'
p3240
aS'pcr'
p3241
aS'recognized'
p3242
aS'sensitive'
p3243
aS'reliable'
p3244
aS'gmo'
p3245
aS'test'
p3246
aS'method'
p3247
aS'pcr'
p3248
aS'industry'
p3249
aS'standard'
p3250
aS'used'
p3251
aS'worldwide'
p3252
aS'verify'
p3253
aS'ensure'
p3254
aS'regulatory'
p3255
aS'compliance'
p3256
aS'non'
p3257
aS'gmo'
p3258
aS'claim'
p3259
aa(lp3260
S'cup'
p3261
aS'try'
p3262
aS'printing'
p3263
aS'minimum'
p3264
aS'opting'
p3265
aS'digital'
p3266
aS'information'
p3267
aS'use'
p3268
aS'recycled'
p3269
aS'paper'
p3270
aa(lp3271
S'cattle'
p3272
aS'feed'
p3273
aS'cow'
p3274
aS'native'
p3275
aS'sustainable'
p3276
aS'california'
p3277
aS'grass'
p3278
aS'retain'
p3279
aS'strict'
p3280
aS'control'
p3281
aS'condition'
p3282
aS'feed'
p3283
aS'certified'
p3284
aS'treatment'
p3285
aS'animal'
p3286
aS'entire'
p3287
aS'process'
p3288
aa(lp3289
S'olive'
p3290
aS'oil'
p3291
aS'certified'
p3292
aS'extra'
p3293
aS'california'
p3294
aS'olive'
p3295
aS'oil'
p3296
aS'council'
p3297
aa(lp3298
S'recycle'
p3299
aS'litter'
p3300
aS'generated'
p3301
aS'shade'
p3302
aS'tree'
p3303
aa(lp3304
S'water'
p3305
aS'fixture'
p3306
aS'automatic'
p3307
aS'control'
p3308
aS'water'
p3309
aS'user'
p3310
aS'waste'
p3311
aS'event'
p3312
aS'left'
p3313
aS'open'
p3314
aa(lp3315
S'lead'
p3316
aS'ecosystem'
p3317
aS'state'
p3318
aS'change'
p3319
aS'fishing'
p3320
aS'operation'
p3321
aS'allow'
p3322
aS'structure'
p3323
aS'productivity'
p3324
aS'function'
p3325
aS'diversity'
p3326
aS'ecosystem'
p3327
aa(lp3328
S'coffee'
p3329
aS'organic'
p3330
aS'year'
p3331
aS'independent'
p3332
aS'coffee'
p3333
aS'farmer'
p3334
aS'met'
p3335
aS'pesticide'
p3336
aS'd'
p3337
aS'good'
p3338
aS'farmign'
p3339
aS'practice'
p3340
aS'farmer'
p3341
aS'sustainable'
p3342
aS'organic'
p3343
aS'harvest'
p3344
aS'year'
p3345
aS'year'
p3346
aa(lp3347
S'paper'
p3348
aS'fsc'
p3349
aS'certified'
p3350
aa(lp3351
S'domestic'
p3352
aS'industrial'
p3353
aS'waste'
p3354
aS'product'
p3355
aS'construction'
p3356
aS'soil'
p3357
aS'cleaning'
p3358
aS'land'
p3359
aS'material'
p3360
aa(lp3361
S'treat'
p3362
aS'herb'
p3363
aa(lp3364
S'power'
p3365
aS'supply'
p3366
aS'computer'
p3367
aS'server'
p3368
aS'greater'
p3369
aS'energy'
p3370
aS'efficient'
p3371
aS'load'
p3372
aS'true'
p3373
aS'power'
p3374
aS'greater'
p3375
aa(lp3376
S'bring'
p3377
aS'variety'
p3378
aS'professional'
p3379
aS'provide'
p3380
aS'customer'
p3381
aS'store'
p3382
aS'educational'
p3383
aS'local'
p3384
aS'grower'
p3385
aS'california'
p3386
aS'olive'
p3387
aS'oil'
p3388
aS'council'
p3389
aS'cooc'
p3390
aS'representative'
p3391
aS'health'
p3392
aS'expert'
p3393
aS'chef'
p3394
aS'expert'
p3395
aS'olive'
p3396
aS'store'
p3397
aS'company'
p3398
aS'primary'
p3399
aS'sponsor'
p3400
aS'california'
p3401
aS'largest'
p3402
aS'olive'
p3403
aS'festival'
p3404
aS'olive'
p3405
aS'festival'
p3406
aS'cooc'
p3407
aS'awareness'
p3408
aS'class'
p3409
aa(lp3410
S'location'
p3411
aS'offer'
p3412
aS'service'
p3413
aS'team'
p3414
aS'chef'
p3415
aS'creating'
p3416
aS'natural'
p3417
aS'restaurant'
p3418
aS'quality'
p3419
aS'food'
p3420
aS'world'
p3421
aa(lp3422
S'setting'
p3423
aS'catch'
p3424
aS'level'
p3425
aS'maintain'
p3426
aS'target'
p3427
aS'population'
p3428
aS'ecological'
p3429
aS'community'
p3430
aS'high'
p3431
aS'productivity'
p3432
aS'relative'
p3433
aS'potential'
p3434
aS'productivity'
p3435
aS'account'
p3436
aS'non'
p3437
aS'target'
p3438
aS'specie'
p3439
aS'size'
p3440
aS'age'
p3441
aS'sex'
p3442
aS'association'
p3443
aS'fishing'
p3444
aS'target'
p3445
aS'specie'
p3446
aS'b'
p3447
aS'identifying'
p3448
aS'appropriate'
p3449
aS'fishing'
p3450
aS'method'
p3451
aS'minimise'
p3452
aS'impact'
p3453
aS'habitat'
p3454
aS'especially'
p3455
aS'critical'
p3456
aS'sensitive'
p3457
aS'zone'
p3458
aS'area'
p3459
aS'providing'
p3460
aS'recovery'
p3461
aS'rebuilding'
p3462
aS'fish'
p3463
aS'population'
p3464
aS'specified'
p3465
aS'level'
p3466
aS'specified'
p3467
aS'time'
p3468
aS'frame'
p3469
ag3337
aS'place'
p3470
aS'limit'
p3471
aS'designated'
p3472
aS'catch'
p3473
aS'limit'
p3474
aS'reached'
p3475
ag3214
aS'establishing'
p3476
aS'zone'
p3477
aS'appropriate'
p3478
aa(lp3479
S'coffee'
p3480
aS'ground'
p3481
aS'given'
p3482
aS'free'
p3483
aS'customer'
p3484
aS'donate'
p3485
aS'coffee'
p3486
aS'ground'
p3487
aS'root'
p3488
aS'grow'
p3489
aS'organic'
p3490
aS'sold'
p3491
aS'food'
p3492
aa(lp3493
S'created'
p3494
aS'separation'
p3495
aS'procedure'
p3496
aS'facility'
p3497
aS'store'
p3498
aa(lp3499
S'cup'
p3500
aS'separate'
p3501
aS'cup'
p3502
aS'staff'
p3503
aS'patron'
p3504
aS'separate'
p3505
aS'recyclables'
p3506
aa(lp3507
S'committed'
p3508
aS'profit'
p3509
aS'organization'
p3510
aS'art'
p3511
aS'environment'
p3512
aS'action'
p3513
aS'sport'
p3514
aS'independent'
p3515
aS'music'
p3516
aS'continuing'
p3517
aS'cultivate'
p3518
aS'awareness'
p3519
aS'promote'
p3520
aS'southern'
p3521
aS'california'
p3522
aS'vibrant'
p3523
aS'growing'
p3524
aS'beer'
p3525
aS'community'
p3526
aa(lp3527
S'eco'
p3528
aS'friendly'
p3529
aS'practice'
p3530
aS'using'
p3531
aS'paper'
p3532
aS'percentage'
p3533
aS'paper'
p3534
aS'post'
p3535
aS'consumer'
p3536
aS'product'
p3537
aa(lp3538
S'minimize'
p3539
aS'negative'
p3540
aS'visual'
p3541
aS'impact'
p3542
aS'reduce'
p3543
aS'drift'
p3544
aS'agricultural'
p3545
aS'processing'
p3546
aS'activity'
p3547
aa(lp3548
S'cow'
p3549
aS'born'
p3550
aS'raised'
p3551
aS'vibrant'
p3552
aS'mountain'
p3553
aa(lp3554
S'paper'
p3555
aS'waste'
p3556
aS'get'
p3557
aS'recycled'
p3558
aa(lp3559
S'cleaning'
p3560
aS'used'
p3561
aS'wine'
p3562
aS'making'
p3563
aS'process'
p3564
aS'reported'
p3565
aS'ecolabel'
p3566
aa(lp3567
S'recovery'
p3568
aS'rebuilding'
p3569
aS'allowed'
p3570
aS'specified'
p3571
aS'level'
p3572
aS'consistent'
p3573
aS'precautionary'
p3574
aS'approach'
p3575
aS'ability'
p3576
aS'population'
p3577
aS'produce'
p3578
aS'long'
p3579
aS'term'
p3580
aS'potential'
p3581
aS'yield'
p3582
aS'specified'
p3583
aS'time'
p3584
aS'frame'
p3585
aa(lp3586
S'test'
p3587
aa(lp3588
S'support'
p3589
aS'bean'
p3590
aS'supplier'
p3591
aS'different'
p3592
aS'coffee'
p3593
aS'growing'
p3594
aS'region'
p3595
aS'world'
p3596
aa(lp3597
S'recycle'
p3598
aS'coffee'
p3599
aS'chaff'
p3600
aS'organic'
p3601
aS'product'
p3602
aS'roasting'
p3603
aS'process'
p3604
aS'giving'
p3605
aS'local'
p3606
aS'organic'
p3607
aS'farmer'
p3608
aS'used'
p3609
aS'rich'
p3610
aS'soil'
p3611
aS'amendment'
p3612
aa(lp3613
S'use'
p3614
aS'mug'
p3615
aS'charged'
p3616
aS'small'
p3617
aS'using'
p3618
aS'cup'
p3619
aS'charged'
p3620
aS'small'
p3621
aa(lp3622
S'milk'
p3623
aS'reusable'
p3624
aS'milk'
p3625
aS'bottle'
p3626
aa(lp3627
S'word'
p3628
aS'check'
p3629
aS'certified'
p3630
aS'american'
p3631
aS'animal'
p3632
aS'welfare'
p3633
aS'approved'
p3634
aS'association'
p3635
aa(lp3636
S'local'
p3637
aS'ingredient'
p3638
aS'local'
p3639
aS'supplier'
p3640
aS'social'
p3641
aS'governance'
p3642
aS'supplier'
p3643
aa(lp3644
S've'
p3645
aS'created'
p3646
aS'treat'
p3647
aS'high'
p3648
aS'quality'
p3649
aS'ingredient'
p3650
ag3337
aS'expect'
p3651
aS'cup'
p3652
aS'friendly'
p3653
aa(lp3654
S'waste'
p3655
aS'reduced'
p3656
aS'used'
p3657
aS'recycled'
p3658
aS'properly'
p3659
aS'facility'
p3660
aa(lp3661
S'energy'
p3662
aS'resource'
p3663
aS'used'
p3664
aS'lowest'
p3665
aS'practical'
p3666
aS'site'
p3667
aS'current'
p3668
aS'technology'
p3669
aS'sale'
p3670
aS'unit'
p3671
aa(lp3672
S'cleaning'
p3673
aS'product'
p3674
aS'environmentally'
p3675
aS'responsible'
p3676
aS'non'
p3677
aS'toxic'
p3678
aS'non'
p3679
aS'chlorine'
p3680
aS'based'
p3681
aS'free'
p3682
aa(lp3683
S'impact'
p3684
aS'biological'
p3685
aS'diversity'
p3686
aa(lp3687
S'cup'
p3688
aS'try'
p3689
aS'printing'
p3690
aS'minimum'
p3691
aS'opting'
p3692
aS'digital'
p3693
aS'information'
p3694
aa(lp3695
S'legal'
p3696
aS'compliance'
p3697
aS'environmental'
p3698
aS'applicable'
p3699
aS'plan'
p3700
aS'rule'
p3701
aS'successful'
p3702
aS'enforcement'
p3703
aS'action'
p3704
aS'government'
p3705
aS'environmental'
p3706
aS'agency'
p3707
aS'past'
p3708
aS'month'
p3709
aa(lp3710
S'reduce'
p3711
aS'nutrient'
p3712
aS'negative'
p3713
aS'impact'
p3714
aS'water'
p3715
aa(lp3716
S'creating'
p3717
aS'sense'
p3718
aS'community'
p3719
aS'local'
p3720
aS'food'
p3721
aS'goal'
p3722
aa(lp3723
S'possible'
p3724
aS'paper'
p3725
aS'get'
p3726
aS'converted'
p3727
aS'recycled'
p3728
aS'sell'
p3729
aS'cost'
p3730
aa(lp3731
S'include'
p3732
aS'emission'
p3733
aS'entire'
p3734
aS'life'
p3735
aS'cycle'
p3736
aS'stage'
p3737
aa(lp3738
S'consistent'
p3739
aS'coffee'
p3740
aS'harvest'
p3741
aS'farmign'
p3742
aS'practice'
p3743
aS'deliver'
p3744
aS'coffee'
p3745
aS'better'
p3746
aS'important'
p3747
aS'better'
p3748
aS'coffee'
p3749
aS'farmer'
p3750
aS'building'
p3751
aS'long'
p3752
aS'term'
p3753
aS'relationship'
p3754
aS'helping'
p3755
aS'farmer'
p3756
aS'secure'
p3757
aS'livelihood'
p3758
aS'protect'
p3759
aS'land'
p3760
aS'farm'
p3761
aS'future'
p3762
aS'generation'
p3763
aa(lp3764
S'eco'
p3765
aS'home'
p3766
aS'consumer'
p3767
aS'product'
p3768
aS'certain'
p3769
aS'harmful'
p3770
aS'chemical'
p3771
aS'creates'
p3772
aS'impact'
p3773
aS'environment'
p3774
aa(lp3775
S'certify'
p3776
aS'certify'
p3777
aS'claim'
p3778
aS'life'
p3779
aS'cycle'
p3780
aS'impact'
p3781
aS'product'
p3782
aS'reduced'
p3783
aS'result'
p3784
aS'implemented'
p3785
aS'change'
p3786
aS'product'
p3787
aS'based'
p3788
aS'lca'
p3789
aS'data'
p3790
aa(lp3791
S'reducing'
p3792
aS'use'
p3793
aS'product'
p3794
aS'actual'
p3795
aS'potential'
p3796
aS'negative'
p3797
aS'impact'
p3798
aS'environment'
p3799
aS'human'
p3800
aS'health'
p3801
aS'recycling'
p3802
aS'waste'
p3803
aa(lp3804
S'pesticide'
p3805
aS'fertilizer'
p3806
aS'irrigation'
p3807
aS'practice'
p3808
aS'reported'
p3809
aS'ecolabel'
p3810
aa(lp3811
S'minimise'
p3812
aS'air'
p3813
aS'land'
p3814
aS'freshwater'
p3815
aa(lp3816
S'chemical'
p3817
aS'comply'
p3818
aS'industry'
p3819
aS'government'
p3820
aS'standard'
p3821
aa(lp3822
S'inspection'
p3823
aS'held'
p3824
aS'ecolabel'
p3825
aS'ensure'
p3826
aS'upholds'
p3827
aS'ecolabel'
p3828
aS'standard'
p3829
aa(lp3830
S'impact'
p3831
aS'environmental'
p3832
aS'health'
p3833
aS'multiple'
p3834
aS'geographic'
p3835
aS'scale'
p3836
aS'including'
p3837
aS'individual'
p3838
aS'property'
p3839
aS'community'
p3840
aa(lp3841
S'help'
p3842
aS'contribute'
p3843
aS'fight'
p3844
aS'breast'
p3845
aS'cancer'
p3846
aS'purchase'
p3847
aS'cup'
p3848
aS'cure'
p3849
aS'merchandise'
p3850
aS'donation'
p3851
aS'susan'
p3852
ag3215
aS'komen'
p3853
aS'foundation'
p3854
aS'purchase'
p3855
aS'support'
p3856
aS'house'
p3857
aS'charity'
p3858
aS'purchase'
p3859
aS'love'
p3860
aS'cup'
p3861
aS'donation'
p3862
aS'charity'
p3863
aS'purchase'
p3864
aS'custom'
p3865
aS'created'
p3866
aS'cup'
p3867
aa(lp3868
S'offer'
p3869
aS'best'
p3870
aS'best'
p3871
aS'free'
p3872
aS'meat'
p3873
aS'produce'
p3874
aa(lp3875
S'line'
p3876
aS'coffee'
p3877
aS'growing'
p3878
aS'sun'
p3879
aS'soil'
p3880
aS'coffee'
p3881
aS'plant'
p3882
aS'tree'
p3883
aa(lp3884
S'lean'
p3885
aS'green'
p3886
aS'program'
p3887
aS'sustainable'
p3888
aS'packaging'
p3889
aS'offer'
p3890
aS'comprehensive'
p3891
aS'alternative'
p3892
aS'use'
p3893
aS'non'
p3894
aS'plastic'
p3895
aS'packaging'
p3896
aS'product'
p3897
aS'program'
p3898
aS'renewable'
p3899
aS'sustainable'
p3900
aS'compostable'
p3901
aS'biodegradable'
p3902
aa(lp3903
S'energy'
p3904
aS'consumption'
p3905
aS'fuel'
p3906
aS'source'
p3907
aS'reported'
p3908
aS'ecolabel'
p3909
aa(lp3910
S'perfect'
p3911
aS'coffee'
p3912
aS'second'
p3913
aS'degree'
p3914
aS'ml'
p3915
aS'specially'
p3916
aS'water'
p3917
aS'water'
p3918
aS'taking'
p3919
aS'farmer'
p3920
aS'roaster'
p3921
aS'baristas'
p3922
aa(lp3923
S'compliance'
p3924
aS'legal'
p3925
aS'requirement'
p3926
aS'successful'
p3927
aS'enforcement'
p3928
aS'action'
p3929
aS'government'
p3930
aS'health'
p3931
aS'safety'
p3932
aS'agency'
p3933
aS'past'
p3934
aS'month'
p3935
aa(lp3936
S'canopy'
p3937
aS'provides'
p3938
aS'habitat'
p3939
aS'rich'
p3940
aS'thousand'
p3941
aS'animal'
p3942
aS'root'
p3943
aS'tree'
p3944
aS'stop'
p3945
aS'soil'
p3946
aa(lp3947
S'free'
p3948
aS'chemical'
p3949
aa(lp3950
S'hot'
p3951
aS'drink'
p3952
aS'cup'
p3953
aS'recycled'
p3954
aS'material'
p3955
aa(lp3956
S'working'
p3957
aS'local'
p3958
aS'artisan'
p3959
aS'market'
p3960
aS'product'
p3961
aS'olive'
p3962
aS'brand'
p3963
aa(lp3964
S'entire'
p3965
aS'menu'
p3966
aS'free'
p3967
aS'trans'
p3968
aS'fat'
p3969
aa(lp3970
S'effort'
p3971
aS'organic'
p3972
aS'chose'
p3973
aS'best'
p3974
aS'quality'
p3975
aS'produce'
p3976
aS'locally'
p3977
aS'grown'
p3978
aS'source'
p3979
aS'ranch'
p3980
aS'jr'
p3981
aS'organic'
p3982
aS'mountain'
p3983
aS'farm'
p3984
aa(lp3985
S'use'
p3986
aS'cup'
p3987
aS'material'
p3988
aa(lp3989
S'year'
p3990
aS've'
p3991
aS'grown'
p3992
aS'proper'
p3993
aS'size'
p3994
aS'age'
p3995
aS'pace'
p3996
aS'cow'
p3997
aS'moved'
p3998
aS'family'
p3999
aS'owned'
p4000
aS'finishing'
p4001
aS'ranch'
p4002
aa(lp4003
S'herb'
p4004
aS'use'
p4005
aS'grown'
p4006
aS'right'
p4007
aS'store'
p4008
aS'including'
p4009
aa(lp4010
S'drink'
p4011
aS'cup'
p4012
aS'cupcake'
p4013
aS'compostable'
p4014
aS'corn'
p4015
aa(lp4016
g1162
aS'work'
p4017
aS'company'
p4018
aS'minor'
p4019
aS'year'
p4020
aS'age'
p4021
aS'work'
p4022
aa(lp4023
S'cupcake'
p4024
aS'change'
p4025
aS'according'
p4026
aS'season'
p4027
aS'feature'
p4028
aS'local'
p4029
aa(lp4030
S'providing'
p4031
aS'healthy'
p4032
aS'environment'
p4033
aS'shade'
p4034
aS'management'
p4035
aS'technique'
p4036
aS'planting'
p4037
aS'appropriate'
p4038
aS'eliminating'
p4039
aS'pesticide'
p4040
aS'chemical'
p4041
aS'fertilizer'
p4042
aS'use'
p4043
aS'use'
p4044
aS'biological'
p4045
aS'control'
p4046
aS'organic'
p4047
aS'practice'
p4048
aa(lp4049
S'allowing'
p4050
aS'consumer'
p4051
aS'obtain'
p4052
aS'reliable'
p4053
aS'information'
p4054
aS'ghg'
p4055
aS'emission'
p4056
aS'make'
p4057
aS'decision'
p4058
aS'goal'
p4059
aS'allow'
p4060
aS'consumer'
p4061
aS'step'
p4062
aS'reducing'
p4063
aS'emission'
p4064
aS'promoting'
p4065
aS'purchase'
p4066
aS'product'
p4067
aS'lowest'
p4068
aS'carbon'
p4069
aS'footprint'
p4070
aa(lp4071
S'verify'
p4072
aS'product'
p4073
aS'safely'
p4074
aS'case'
p4075
aa(lp4076
a(lp4077
S'ecosystem'
p4078
aS'drift'
p4079
aa(lp4080
S'compliant'
p4081
aS'health'
p4082
aS'safety'
p4083
aS'management'
p4084
aS'place'
p4085
aS'continuing'
p4086
aS'staff'
p4087
aS'supplier'
p4088
aS'customer'
p4089
aS'worker'
p4090
aS'health'
p4091
aS'safety'
p4092
aS'condition'
p4093
aS'past'
p4094
aS'month'
p4095
aa(lp4096
S'unique'
p4097
aS'come'
p4098
aS'perfect'
p4099
aS'combination'
p4100
aS'fruit'
p4101
aS'natural'
p4102
aS'product'
p4103
aS'help'
p4104
aS'achieve'
p4105
aS'objective'
p4106
aS'plan'
p4107
aa(lp4108
S'space'
p4109
aS'ability'
p4110
aS'engage'
p4111
aS'natural'
p4112
aS'behavior'
p4113
aa(lp4114
S'achieved'
p4115
aS'star'
p4116
aS'green'
p4117
aS'restaurant'
p4118
aS'certification'
p4119
aS'awarded'
p4120
aS'earth'
p4121
aS'friendly'
p4122
aS'use'
p4123
aS'sustainable'
p4124
aS'material'
p4125
aS'build'
p4126
aS'lounge'
p4127
aS'daily'
p4128
aS'operation'
p4129
aa(lp4130
S'accommodate'
p4131
aS'need'
p4132
aS'eliminating'
p4133
aS'sugar'
p4134
aS'wheat'
p4135
aa(lp4136
S'lost'
p4137
aS'fishing'
p4138
aS'oil'
p4139
aS'board'
p4140
aS'catch'
p4141
aa(lp4142
S'protocol'
p4143
aS'created'
p4144
aS'leading'
p4145
aS'allergy'
p4146
aS'specifically'
p4147
aS'benefit'
p4148
aS'allergy'
p4149
aa(lp4150
S'product'
p4151
aS'meeting'
p4152
aS'eco'
p4153
aS'home'
p4154
aS'requirement'
p4155
aS'meet'
p4156
aS'lowest'
p4157
aS'limit'
p4158
aS'lead'
p4159
aS'coating'
p4160
aa(lp4161
S'fishing'
p4162
aS'conducted'
p4163
aS'manner'
p4164
aS'age'
p4165
aS'genetic'
p4166
aS'structure'
p4167
aS'sex'
p4168
aS'degree'
p4169
aS'capacity'
p4170
aa(lp4171
S'review'
p4172
aS'potential'
p4173
aS'risk'
p4174
aS'area'
p4175
aS'taken'
p4176
aS'minor'
p4177
aS'non'
p4178
aS'worker'
p4179
aS'reported'
p4180
aS'past'
p4181
aS'month'
p4182
aa(lp4183
S'recyclable'
p4184
aS'product'
p4185
aS'diverted'
p4186
aS'waste'
p4187
aS'stream'
p4188
aS'available'
p4189
aS'process'
p4190
aS'program'
p4191
aS'processed'
p4192
aS'use'
p4193
aS'form'
p4194
aS'raw'
p4195
aS'material'
p4196
aS'product'
p4197
aS'end'
p4198
aS'life'
p4199
aS'recycled'
p4200
aS'content'
p4201
aS'comprised'
p4202
aS'consumer'
p4203
aS'post'
p4204
aS'consumer'
p4205
aS'material'
p4206
aS'used'
p4207
aS'raw'
p4208
aS'material'
p4209
aS'manufacturing'
p4210
aS'product'
p4211
aa(lp4212
S'jr'
p4213
aS'right'
p4214
aS'new'
p4215
aS'york'
p4216
aS'time'
p4217
aS'major'
p4218
aS'league'
p4219
aS'baseball'
p4220
aS'star'
p4221
aS'ceo'
p4222
aS'carlos'
p4223
aS'brito'
p4224
aS'global'
p4225
aS'er'
p4226
aS'responsible'
p4227
aS'day'
p4228
aS'time'
p4229
aS'taking'
p4230
aS'pledge'
p4231
aS'designated'
p4232
aS'driver'
p4233
aa(lp4234
S'constantly'
p4235
aS'challenge'
p4236
aS'dream'
p4237
aS'bigger'
p4238
aS'achieve'
p4239
aa(lp4240
S'best'
p4241
aS'beer'
p4242
aS'company'
p4243
aS'better'
p4244
aS'world'
p4245
aS'ambitious'
p4246
aS'dream'
p4247
aa(lp4248
S'believe'
p4249
aS'worth'
p4250
aS'pursuing'
p4251
aa(lp4252
S'start'
p4253
aS'culture'
p4254
aS'foster'
p4255
aS'right'
p4256
aS'conversation'
p4257
aS'right'
p4258
aS'stakeholder'
p4259
aS'inside'
p4260
aS'outside'
p4261
aS'company'
p4262
aa(lp4263
S'turning'
p4264
aS'dialogue'
p4265
aS'meaningful'
p4266
aS'action'
p4267
aS'drive'
p4268
aS'real'
p4269
aS'result'
p4270
aa(lp4271
S'pleased'
p4272
aS'report'
p4273
aS'achieving'
p4274
aS'result'
p4275
aS'progress'
p4276
aS'better'
p4277
aS'world'
p4278
aS'goal'
p4279
aa(lp4280
S'focus'
p4281
aS'area'
p4282
aS'important'
p4283
aS'business'
p4284
aS'world'
p4285
aS'responsible'
p4286
aS'drinking'
p4287
aS'environment'
p4288
aS'community'
p4289
aa(lp4290
S'achieved'
p4291
aS'year'
p4292
aS'global'
p4293
aS'environmental'
p4294
aS'goal'
p4295
aS'set'
p4296
aS'water'
p4297
aS'energy'
p4298
aS'carbon'
p4299
aS'emission'
p4300
aS'recycling'
p4301
aa(lp4302
S'keeping'
p4303
aS'culture'
p4304
aS'employee'
p4305
aS'engagement'
p4306
aS'continuous'
p4307
aS'improvement'
p4308
aS'reached'
p4309
aS'goal'
p4310
aS'target'
p4311
aa(lp4312
S'key'
p4313
aS'constant'
p4314
aS'sharing'
p4315
aS'environmental'
p4316
aS'best'
p4317
aS'practice'
p4318
aS'brewery'
p4319
aS'world'
p4320
aa(lp4321
S'pleased'
p4322
aS'accomplishment'
p4323
aS'lot'
p4324
aa(lp4325
S'plan'
p4326
aS'announce'
p4327
aS'challenging'
p4328
aS'new'
p4329
aS'set'
p4330
aS'global'
p4331
aS'environmental'
p4332
aS'goal'
p4333
aS'later'
p4334
aS'world'
p4335
aS'leading'
p4336
aS'brewer'
p4337
aS'know'
p4338
aS'lead'
p4339
aS'promoting'
p4340
aS'responsible'
p4341
aS'drinking'
p4342
aS'encouraging'
p4343
aS'consumer'
p4344
aS'legal'
p4345
aS'drinking'
p4346
aS'age'
p4347
aS'enjoy'
p4348
aS'product'
p4349
aS'responsibly'
p4350
aS'encouraging'
p4351
aS'underage'
p4352
aS'respect'
p4353
aS'law'
p4354
aa(lp4355
S'announced'
p4356
aS'set'
p4357
aS'global'
p4358
aS'responsible'
p4359
aS'drinking'
p4360
aS'goal'
p4361
aS'committed'
p4362
aS'achieve'
p4363
aS'end'
p4364
aS'goal'
p4365
aS'guide'
p4366
aS'effort'
p4367
aS'prevent'
p4368
aS'harmful'
p4369
aS'use'
p4370
aS'alcohol'
p4371
aS'including'
p4372
aS'drunk'
p4373
aS'driving'
p4374
aS'underage'
p4375
aS'drinking'
p4376
aa(lp4377
S'announce'
p4378
aS'sum'
p4379
aS'year'
p4380
aS'progress'
p4381
aS'later'
p4382
aS'year'
p4383
aa(lp4384
S'important'
p4385
aS'effort'
p4386
aS'resource'
p4387
aS'educational'
p4388
aS'program'
p4389
aS'encourage'
p4390
aS'positive'
p4391
aS'behavior'
p4392
aS'partnering'
p4393
aS'family'
p4394
aS'law'
p4395
aS'enforcement'
p4396
aS'commercial'
p4397
aS'retail'
p4398
aS'partner'
p4399
aa(lp4400
S'community'
p4401
aS'live'
p4402
aS'work'
p4403
aS'impact'
p4404
aS'go'
p4405
aS'far'
p4406
aS'job'
p4407
aS'create'
p4408
aS'wage'
p4409
aS'tax'
p4410
aS'contribute'
p4411
aS'local'
p4412
aa(lp4413
S'business'
p4414
aS'operation'
p4415
aS'foundation'
p4416
aS'provide'
p4417
aS'charitable'
p4418
aS'donation'
p4419
aS'engage'
p4420
aS'employee'
p4421
aS'volunteer'
p4422
aS'program'
p4423
aS'form'
p4424
aS'unique'
p4425
aS'community'
p4426
aS'partnership'
p4427
aS'mobilize'
p4428
aS'resource'
p4429
aS'support'
p4430
aS'victim'
p4431
aS'relief'
p4432
aS'worker'
p4433
aS'disaster'
p4434
aS'emergency'
p4435
aS'situation'
p4436
aa(lp4437
S'example'
p4438
aS'donated'
p4439
aS'million'
p4440
aS'can'
p4441
aS'drinking'
p4442
aS'water'
p4443
aS'support'
p4444
aS'disaster'
p4445
aS'relief'
p4446
aS'effort'
p4447
aS'united'
p4448
aS'state'
p4449
aS'million'
p4450
aS'went'
p4451
aS'help'
p4452
aS'affected'
p4453
aS'superstorm'
p4454
aS'sandy'
p4455
aa(lp4456
S'colleague'
p4457
aS'world'
p4458
aS'volunteered'
p4459
aS'community'
p4460
aS'year'
p4461
aa(lp4462
S'course'
p4463
aS'result'
p4464
aS'following'
p4465
aS'page'
p4466
aS'possible'
p4467
aS'people'
p4468
aa(lp4469
S'colleague'
p4470
aS'foundation'
p4471
aa(lp4472
S'heart'
p4473
aS'culture'
p4474
aS'collaboration'
p4475
aS'ownership'
p4476
aS'conversation'
p4477
aS'drive'
p4478
aS'action'
p4479
aS'result'
p4480
aa(lp4481
S'world'
p4482
aS'guided'
p4483
aS'strong'
p4484
aS'code'
p4485
aS'business'
p4486
aS'conduct'
p4487
aS'help'
p4488
aS'ensure'
p4489
aS'company'
p4490
aS'commitment'
p4491
aS'highest'
p4492
aS'standard'
p4493
aS'integrity'
p4494
aa(lp4495
S'key'
p4496
aS'component'
p4497
aS'code'
p4498
aS'anti'
p4499
aS'corruption'
p4500
aS'policy'
p4501
aS'compliance'
p4502
aS'program'
p4503
aS'includes'
p4504
aS'annual'
p4505
aS'online'
p4506
aS'training'
p4507
aS'certification'
p4508
aS'program'
p4509
aS'employee'
p4510
aa(lp4511
S'commitment'
p4512
aS'course'
p4513
aS'start'
p4514
aa(lp4515
S'board'
p4516
aS'director'
p4517
aS'received'
p4518
aS'person'
p4519
aS'anti'
p4520
aS'corruption'
p4521
aS'compliance'
p4522
aS'training'
p4523
aS'annually'
p4524
aa(lp4525
S'dream'
p4526
aS'ongoing'
p4527
aS'journey'
p4528
aa(lp4529
S'know'
p4530
aS'conversation'
p4531
aS'action'
p4532
aS'taken'
p4533
aS'important'
p4534
aS'result'
p4535
aS'achieve'
p4536
aa(lp4537
S'thank'
p4538
aS'conversation'
p4539
aS'strive'
p4540
aS'best'
p4541
aS'beer'
p4542
aS'company'
p4543
aS'better'
p4544
aS'world'
p4545
aa(lp4546
S'carlos'
p4547
aS'brito'
p4548
aS'executive'
p4549
aS'officer'
p4550
aS'dream'
p4551
aS'people'
p4552
aS'culture'
p4553
aS'dream'
p4554
aS'best'
p4555
aS'beer'
p4556
aS'company'
p4557
aS'better'
p4558
aS'world'
p4559
aa(lp4560
S'key'
p4561
aS'bringing'
p4562
aS'dream'
p4563
aS'life'
p4564
aS'people'
p4565
aS'culture'
p4566
aa(lp4567
S'best'
p4568
aS'commitment'
p4569
aS'ongoing'
p4570
aS'challenge'
p4571
aa(lp4572
S'constantly'
p4573
aS'raise'
p4574
aS'bar'
p4575
aS'build'
p4576
aS'company'
p4577
aS'generate'
p4578
aS'sustainable'
p4579
aS'long'
p4580
aS'term'
p4581
aS'growth'
p4582
aS'result'
p4583
aa(lp4584
S'principle'
p4585
aS'guide'
p4586
aS'effort'
p4587
aS'dream'
p4588
aS'shared'
p4589
aS'dream'
p4590
aS'work'
p4591
aS'direction'
p4592
aS'best'
p4593
aS'beer'
p4594
aS'company'
p4595
aS'better'
p4596
aS'world'
p4597
aa(lp4598
S'people'
p4599
aS'great'
p4600
aS'people'
p4601
aS'allowed'
p4602
aS'grow'
p4603
aS'pace'
p4604
aS'talent'
p4605
aS'asset'
p4606
aS'company'
p4607
aa(lp4608
S'select'
p4609
aS'people'
p4610
aS'right'
p4611
aS'development'
p4612
aS'challenge'
p4613
aS'better'
p4614
aa(lp4615
S'culture'
p4616
aS'result'
p4617
aS'fuel'
p4618
aS'company'
p4619
aa(lp4620
S'focus'
p4621
aS'zero'
p4622
aS'lasting'
p4623
aS'advantage'
p4624
aa(lp4625
S'consumer'
p4626
aa(lp4627
S'consumer'
p4628
aS'meaningful'
p4629
aS'brand'
p4630
aS'experience'
p4631
aS'innovation'
p4632
aS'responsible'
p4633
aS'way'
p4634
aa(lp4635
S'company'
p4636
aS'owner'
p4637
aa(lp4638
S'owner'
p4639
aS'result'
p4640
aa(lp4641
S'believe'
p4642
aS'common'
p4643
aS'sense'
p4644
aS'better'
p4645
aS'guideline'
p4646
aa(lp4647
S'manage'
p4648
aS'cost'
p4649
aS'free'
p4650
aS'resource'
p4651
aS'support'
p4652
aS'line'
p4653
aS'growth'
p4654
aa(lp4655
S'leadership'
p4656
aS'personal'
p4657
aS'example'
p4658
aS'best'
p4659
aS'guide'
p4660
aS'culture'
p4661
aa(lp4662
S'say'
p4663
aa(lp4664
a(lp4665
S'integrity'
p4666
aS'hard'
p4667
aS'work'
p4668
aS'quality'
p4669
aS'consistency'
p4670
aS'key'
p4671
aS'building'
p4672
aS'company'
p4673
aa(lp4674
S'brewing'
p4675
aS'better'
p4676
aS'world'
p4677
aS'conversation'
p4678
aS'action'
p4679
aS'result'
p4680
aS'know'
p4681
aS'dream'
p4682
aS'ambitious'
p4683
aa(lp4684
S'dream'
p4685
aS'worth'
p4686
aS'pursuing'
p4687
aa(lp4688
S'work'
p4689
aS'best'
p4690
aS'beer'
p4691
aS'company'
p4692
aS'better'
p4693
aS'world'
p4694
aS'constant'
p4695
aS'conversation'
p4696
aS'stakeholder'
p4697
aS'taking'
p4698
aS'action'
p4699
aS'according'
p4700
aS'pillar'
p4701
aS'define'
p4702
aS'better'
p4703
aS'world'
p4704
aS'focus'
p4705
aS'responsible'
p4706
aS'drinking'
p4707
aS'environment'
p4708
aS'community'
p4709
aa(lp4710
S'importantly'
p4711
aS'seeing'
p4712
aS'result'
p4713
aa(lp4714
S'brewing'
p4715
aS'better'
p4716
aS'world'
p4717
aS'better'
p4718
aS'world'
p4719
aS'pillar'
p4720
aS'responsible'
p4721
aS'drinking'
p4722
aS'promote'
p4723
aS'responsible'
p4724
aS'enjoyment'
p4725
aS'product'
p4726
aS'world'
p4727
aS'help'
p4728
aS'educate'
p4729
aS'community'
p4730
aS'consumer'
p4731
aS'campaign'
p4732
aS'topic'
p4733
aS'drunk'
p4734
aS'driving'
p4735
aS'underage'
p4736
aS'drinking'
p4737
aS'prevention'
p4738
aa(lp4739
S'environment'
p4740
aS'brewing'
p4741
aS'best'
p4742
aS'beer'
p4743
aS'better'
p4744
aS'world'
p4745
aS'requires'
p4746
aS'look'
p4747
aS'opportunity'
p4748
aa(lp4749
S'set'
p4750
aS'ambitious'
p4751
aS'environmental'
p4752
aS'target'
p4753
aS'water'
p4754
aS'conservation'
p4755
aS'energy'
p4756
aS'use'
p4757
aS'greenhouse'
p4758
aS'gas'
p4759
aS'emission'
p4760
aS'recycling'
p4761
aS'share'
p4762
aS'responsibility'
p4763
aS'meeting'
p4764
aS'goal'
p4765
aS'entire'
p4766
aS'company'
p4767
aa(lp4768
S'community'
p4769
aS'responsible'
p4770
aS'corporate'
p4771
aS'giving'
p4772
aS'community'
p4773
aS'live'
p4774
aS'work'
p4775
aS'country'
p4776
aS'operate'
p4777
aa(lp4778
S'creating'
p4779
aS'job'
p4780
aS'wage'
p4781
ag4410
aS'encouraging'
p4782
aS'employee'
p4783
aS'volunteer'
p4784
aS'continually'
p4785
aS'look'
p4786
aS'new'
p4787
aS'way'
p4788
aS'make'
p4789
aS'impact'
p4790
aa(lp4791
S'people'
p4792
aS'supporting'
p4793
aS'pillar'
p4794
aS'people'
p4795
aS'engine'
p4796
aS'drive'
p4797
aS'forward'
p4798
aS'conversation'
p4799
aS'going'
p4800
aa(lp4801
S'know'
p4802
aS'order'
p4803
aS'best'
p4804
aS'beer'
p4805
aS'company'
p4806
aS'better'
p4807
aS'world'
p4808
aS'need'
p4809
aS'continue'
p4810
aS'attract'
p4811
aS'retain'
p4812
aS'best'
p4813
aS'people'
p4814
aS'effort'
p4815
aS'better'
p4816
aS'workplace'
p4817
aS'enhance'
p4818
aS'better'
p4819
aS'world'
p4820
aS'program'
p4821
aS'impact'
p4822
aS'customer'
p4823
aS'globe'
p4824
aa(lp4825
S'holding'
p4826
aS'highest'
p4827
aS'standard'
p4828
aS'ethic'
p4829
aS'integrity'
p4830
aS'continue'
p4831
aS'brewing'
p4832
aS'better'
p4833
aS'world'
p4834
aS'rich'
p4835
aS'empowering'
p4836
aS'conversation'
p4837
aS'began'
p4838
aS'founding'
p4839
aS'den'
p4840
aS'hoorn'
p4841
aS'brewery'
p4842
aS'leuven'
p4843
aS'belgium'
p4844
aa(lp4845
S'continue'
p4846
aS'work'
p4847
aS'number'
p4848
aS'partner'
p4849
aS'including'
p4850
aS'supplier'
p4851
aS'wholesaler'
p4852
aS'company'
p4853
aS'packaging'
p4854
aS'expert'
p4855
aS'identify'
p4856
aS'new'
p4857
aS'way'
p4858
aS'minimize'
p4859
aS'environmental'
p4860
aS'impact'
p4861
aS'cost'
p4862
aS'packaging'
p4863
aS'meeting'
p4864
aS'quality'
p4865
aS'standard'
p4866
aS'consumer'
p4867
aa(lp4868
S'conversation'
p4869
aS'action'
p4870
aS'result'
p4871
aS'world'
p4872
aS'largest'
p4873
aS'brewer'
p4874
aS'know'
p4875
aS'dream'
p4876
aS'ambitious'
p4877
aa(lp4878
S'dream'
p4879
aS'worth'
p4880
aS'committed'
p4881
aS'promoting'
p4882
aS'responsible'
p4883
aS'pursuing'
p4884
aa(lp4885
S'work'
p4886
aS'best'
p4887
aS'beer'
p4888
aS'enjoyment'
p4889
aS'product'
p4890
aS'worldwide'
p4891
aS'company'
p4892
aS'better'
p4893
aS'world'
p4894
aS'constant'
p4895
aS'conversation'
p4896
aS'stakeholder'
p4897
aS'taking'
p4898
aS'action'
p4899
aS'according'
p4900
aS'adult'
p4901
aS'legal'
p4902
aS'drinking'
p4903
aS'age'
p4904
aa(lp4905
S'pillar'
p4906
aS'define'
p4907
aS'better'
p4908
aS'world'
p4909
aS'focus'
p4910
aS'harmful'
p4911
aS'use'
p4912
aS'alcohol'
p4913
aS'responsible'
p4914
aS'drinking'
p4915
aS'environment'
p4916
aS'community'
p4917
aa(lp4918
S'importantly'
p4919
aS'seeing'
p4920
aS'result'
p4921
aa(lp4922
S'including'
p4923
aS'excessive'
p4924
aS'drinking'
p4925
aS'drunk'
p4926
aS'driving'
p4927
aS'underage'
p4928
aS'drinking'
p4929
aa(lp4930
S'taking'
p4931
aS'commitment'
p4932
aS'new'
p4933
aS'level'
p4934
aS'continue'
p4935
aS'look'
p4936
aS'new'
p4937
aS'way'
p4938
aS'promote'
p4939
aS'responsible'
p4940
aS'use'
p4941
aS'product'
p4942
aS'joined'
p4943
aS'leading'
p4944
aS'producer'
p4945
aS'beer'
p4946
aS'wine'
p4947
aS'spirit'
p4948
aS'pledged'
p4949
aS'support'
p4950
aS'world'
p4951
aS'health'
p4952
aS'organization'
p4953
aS'global'
p4954
aS'strategy'
p4955
aS'reduce'
p4956
aS'harmful'
p4957
aS'use'
p4958
aS'alcohol'
p4959
aa(lp4960
S'year'
p4961
aS'company'
p4962
aS'work'
p4963
aS'global'
p4964
aS'action'
p4965
aS'commitment'
p4966
aS'address'
p4967
aS'following'
p4968
aS'reducing'
p4969
aS'underage'
p4970
aS'drinking'
p4971
aS'strengthening'
p4972
aS'marketing'
p4973
aS'code'
p4974
aS'practice'
p4975
aS'providing'
p4976
aS'consumer'
p4977
aS'information'
p4978
aS'responsible'
p4979
aS'product'
p4980
aS'innovation'
p4981
aS'reducing'
p4982
aS'drinking'
p4983
aS'driving'
p4984
aS'support'
p4985
aS'retailer'
p4986
aS'reduce'
p4987
aS'harmful'
p4988
aS'drinking'
p4989
aS'commitment'
p4990
aS'support'
p4991
aS'international'
p4992
aS'center'
p4993
aS'alcohol'
p4994
aS'policy'
p4995
aS'mission'
p4996
aS'promoting'
p4997
aS'understanding'
p4998
aS'role'
p4999
aS'alcohol'
p5000
aS'society'
p5001
aS'helping'
p5002
aS'reduce'
p5003
aS'alcohol'
p5004
aS'abuse'
p5005
aS'worldwide'
p5006
aS'encouraging'
p5007
aS'dialogue'
p5008
aS'industry'
p5009
aS'government'
p5010
aS'public'
p5011
aS'health'
p5012
aS'community'
p5013
aa(lp5014
S'consistent'
p5015
aS'long'
p5016
aS'standing'
p5017
aS'action'
p5018
aS'help'
p5019
aS'prevent'
p5020
aS'harmful'
p5021
aS'use'
p5022
aS'alcohol'
p5023
aS'global'
p5024
aS'er'
p5025
aS'responsible'
p5026
aS'day'
p5027
aS'responsible'
p5028
aS'drinking'
p5029
aS'program'
p5030
aa(lp5031
S'addition'
p5032
aS'launched'
p5033
aS'new'
p5034
aS'company'
p5035
aS'website'
p5036
aS'www'
p5037
aS'com'
p5038
aS'provide'
p5039
aS'consumer'
p5040
aS'additional'
p5041
aS'resource'
p5042
aS'information'
p5043
aS'beer'
p5044
aS'world'
p5045
aa(lp5046
S'website'
p5047
aS'provides'
p5048
aS'information'
p5049
aS'alcohol'
p5050
aS'content'
p5051
aS'ingredient'
p5052
aS'value'
p5053
aS'global'
p5054
aS'focus'
p5055
aS'brand'
p5056
aS'key'
p5057
aS'market'
p5058
aa(lp5059
S'includes'
p5060
aS'responsible'
p5061
aS'drinking'
p5062
aS'tip'
p5063
aS'beer'
p5064
aS'food'
p5065
aS'idea'
p5066
aa(lp5067
S'additional'
p5068
aS'brand'
p5069
aS'site'
p5070
aS'making'
p5071
aS'information'
p5072
aS'available'
p5073
aS'key'
p5074
aS'country'
p5075
aS'language'
p5076
aa(lp5077
S'keeping'
p5078
aS'conversation'
p5079
aS'going'
p5080
aS'country'
p5081
aS'specific'
p5082
aS'effort'
p5083
aS'included'
p5084
aS'belgium'
p5085
aS'team'
p5086
aS'participated'
p5087
aS'global'
p5088
aS'er'
p5089
aS'responsible'
p5090
aS'day'
p5091
aS'street'
p5092
aS'initiative'
p5093
aS'colleague'
p5094
aS'responsible'
p5095
aS'drinking'
p5096
aS'belgian'
p5097
aS'city'
p5098
aS'providing'
p5099
aS'sample'
p5100
aS'jupiler'
p5101
aS'force'
p5102
aS'hoegaarden'
p5103
aS'non'
p5104
aS'alcohol'
p5105
aS'beverage'
p5106
aa(lp5107
S'launched'
p5108
aS'family'
p5109
aS'talk'
p5110
aS'website'
p5111
aS'www'
p5112
aa(lp5113
S'year'
p5114
aS'continued'
p5115
aS'support'
p5116
aS'responsible'
p5117
aS'drinking'
p5118
aS'program'
p5119
aS'designated'
p5120
aS'driver'
p5121
aS'effort'
p5122
aS'respect'
p5123
aS'retailer'
p5124
aS'sell'
p5125
aS'legal'
p5126
aS'drinking'
p5127
aS'age'
p5128
aa(lp5129
S'addition'
p5130
aS'launched'
p5131
aS'major'
p5132
aS'drink'
p5133
aS'drive'
p5134
aS'advertising'
p5135
aS'campaign'
p5136
aS'using'
p5137
aS'jupiler'
p5138
aS'na'
p5139
aS'hoegaarden'
p5140
aS'non'
p5141
aS'alcohol'
p5142
aS'brand'
p5143
aa(lp5144
S'germany'
p5145
aS'team'
p5146
aS'germany'
p5147
aS'kept'
p5148
aS'conversation'
p5149
aS'going'
p5150
aS'key'
p5151
aS'target'
p5152
aS'year'
p5153
aS'old'
p5154
aa(lp5155
S'building'
p5156
aS'successful'
p5157
aS'program'
p5158
aS'foundation'
p5159
aS'expanded'
p5160
aS'peer'
p5161
aS'peer'
p5162
aS'ambassador'
p5163
aS'program'
p5164
aS'gekl'
p5165
aS'art'
p5166
aS'wer'
p5167
aS'f'
p5168
aS'ahrt'
p5169
aS'check'
p5170
aS'driving'
p5171
aS'goal'
p5172
aS'making'
p5173
aS'best'
p5174
aS'known'
p5175
aS'used'
p5176
aS'drink'
p5177
aS'drive'
p5178
aS'message'
p5179
aS'campaign'
p5180
aS'germany'
p5181
aa(lp5182
S'strategic'
p5183
aS'step'
p5184
aS'process'
p5185
aS'team'
p5186
aS'campaign'
p5187
aS'integrated'
p5188
aS'approach'
p5189
aS'included'
p5190
aS'small'
p5191
aS'group'
p5192
aS'facebook'
p5193
aS'traditional'
p5194
aS'medium'
p5195
aS'outreach'
p5196
aa(lp5197
S'responsible'
p5198
aS'use'
p5199
aS'alcohol'
p5200
aS'needed'
p5201
aS'driver'
p5202
aa(lp5203
S'education'
p5204
aS'measure'
p5205
aS'gekl'
p5206
aS'art'
p5207
aS'wer'
p5208
ag5168
aS'ahrt'
p5209
aS'help'
p5210
aS'make'
p5211
aS'young'
p5212
aS'people'
p5213
aS'aware'
p5214
aS'matter'
p5215
aS'course'
p5216
aS'drive'
p5217
aS'consumer'
p5218
aS'protection'
p5219
aS'officer'
p5220
aS'russia'
p5221
aS'central'
p5222
aS'eastern'
p5223
aS'europe'
p5224
aS'zone'
p5225
aS'employee'
p5226
aS'sale'
p5227
aS'team'
p5228
aS'brewery'
p5229
aS'office'
p5230
aS'participated'
p5231
aS'global'
p5232
aS'er'
p5233
aS'responsible'
p5234
aS'day'
p5235
aa(lp5236
S'provided'
p5237
aS'id'
p5238
aS'checking'
p5239
aS'material'
p5240
aS'retailer'
p5241
aS'remind'
p5242
aS'sell'
p5243
aS'beer'
p5244
aS'consumer'
p5245
aS'legal'
p5246
aS'drinking'
p5247
aS'age'
p5248
aS'compliance'
p5249
aS'law'
p5250
aa(lp5251
S'china'
p5252
aS'ab'
p5253
aS'china'
p5254
aS'conversation'
p5255
aS'online'
p5256
aS'latest'
p5257
aS'country'
p5258
aS'implement'
p5259
aS'family'
p5260
aS'talk'
p5261
aS'program'
p5262
aS'created'
p5263
aS'parenting'
p5264
aS'education'
p5265
aS'family'
p5266
aS'counseling'
p5267
aS'expert'
p5268
aS'help'
p5269
aS'parent'
p5270
aS'talk'
p5271
aS'young'
p5272
aS'people'
p5273
aS'underage'
p5274
aS'drinking'
p5275
aa(lp5276
S'started'
p5277
aS'program'
p5278
aS'u'
p5279
aS'continue'
p5280
aS'local'
p5281
aS'culture'
p5282
aS'zone'
p5283
aa(lp5284
S'launched'
p5285
aS'family'
p5286
aS'talk'
p5287
aS'september'
p5288
aS'public'
p5289
aS'education'
p5290
aS'campaign'
p5291
aS'prevent'
p5292
aS'underage'
p5293
aS'drinking'
p5294
aS'china'
p5295
aa(lp5296
S'spread'
p5297
aS'word'
p5298
aS'partnered'
p5299
aS'china'
p5300
aS'development'
p5301
aS'foundation'
p5302
aS'southern'
p5303
aS'newspaper'
p5304
aS'china'
p5305
aS'alcoholic'
p5306
aS'drink'
p5307
aS'association'
p5308
aS'beer'
p5309
aa(lp5310
S'team'
p5311
aS'employee'
p5312
aS'city'
p5313
aS'supported'
p5314
aS'launch'
p5315
aS'distributing'
p5316
aS'china'
p5317
aS'parent'
p5318
aS'guide'
p5319
aS'underage'
p5320
aS'drinking'
p5321
aS'prevention'
p5322
aa(lp5323
S'launched'
p5324
aS'social'
p5325
ag5195
aS'app'
p5326
aS'provides'
p5327
aS'parenting'
p5328
aS'tip'
p5329
aa(lp5330
S'public'
p5331
aS'encouraged'
p5332
aS'make'
p5333
aS'commitment'
p5334
aS'help'
p5335
aS'prevent'
p5336
aS'underage'
p5337
aS'drinking'
p5338
aS'share'
p5339
aS'guide'
p5340
aS'topic'
p5341
aS'social'
p5342
ag5195
aS'using'
p5343
aa(lp5344
S'addition'
p5345
aS'family'
p5346
aS'talk'
p5347
aS'ab'
p5348
aS'china'
p5349
aS'film'
p5350
aS'true'
p5351
aS'love'
p5352
aS'need'
p5353
aS'designated'
p5354
aS'driver'
p5355
aS'campaign'
p5356
aa(lp5357
S'story'
p5358
aS'showed'
p5359
aS'use'
p5360
aS'designated'
p5361
aS'driver'
p5362
aS'true'
p5363
aS'love'
p5364
aS'caring'
p5365
aa(lp5366
S'included'
p5367
aS'ab'
p5368
aS'zone'
p5369
aS'president'
p5370
aS'local'
p5371
aS'police'
p5372
aa(lp5373
S'film'
p5374
aS'released'
p5375
aS'com'
p5376
aS'com'
p5377
aS'sina'
p5378
aS'com'
p5379
aS'video'
p5380
aS'site'
p5381
aS'challenge'
p5382
aS'video'
p5383
aS'shared'
p5384
aS'time'
p5385
aS'budweiser'
p5386
aS'sina'
p5387
aS'make'
p5388
aS'donation'
p5389
aS'build'
p5390
aS'hope'
p5391
aS'school'
p5392
aS'school'
p5393
ag1162
aS'family'
p5394
aS'chance'
p5395
aS'education'
p5396
aa(lp5397
S'film'
p5398
aS'received'
p5399
aS'million'
p5400
aS'view'
p5401
aS'day'
p5402
aS'sharing'
p5403
aS'goal'
p5404
aS'achieved'
p5405
aS'week'
p5406
aa(lp5407
S'august'
p5408
aS'reached'
p5409
aS'million'
p5410
aS'view'
p5411
aS'announced'
p5412
aS'support'
p5413
aS'construction'
p5414
aS'suqian'
p5415
aS'hope'
p5416
aS'primary'
p5417
aS'school'
p5418
aS'jiangsu'
p5419
aS'province'
p5420
aa(lp5421
S'united'
p5422
aS'state'
p5423
ag5279
aS'operation'
p5424
aS'celebrated'
p5425
aS'th'
p5426
aS'company'
p5427
aS'responsible'
p5428
aS'drinking'
p5429
aS'campaign'
p5430
aS'know'
p5431
aS'say'
p5432
aS'recognize'
p5433
aS'accomplishment'
p5434
aS'new'
p5435
aS'online'
p5436
aS'social'
p5437
ag5195
aS'campaign'
p5438
aS'nation'
p5439
aS'responsible'
p5440
aS'adult'
p5441
aS'pledge'
p5442
aS'commitment'
p5443
aS'drink'
p5444
aS'responsibly'
p5445
aS'encourage'
p5446
aS'facebook'
p5447
aS'friend'
p5448
aa(lp5449
S'past'
p5450
aS'decade'
p5451
aS'company'
p5452
aS'wholesaler'
p5453
aS'committed'
p5454
aS'million'
p5455
aS'national'
p5456
aS'advertising'
p5457
aS'campaign'
p5458
aS'community'
p5459
aS'based'
p5460
aS'program'
p5461
aS'encourage'
p5462
aS'responsible'
p5463
aS'drinking'
p5464
aS'prevent'
p5465
aS'underage'
p5466
aS'drinking'
p5467
aS'drunk'
p5468
aS'driving'
p5469
aa(lp5470
S'canada'
p5471
aS'launched'
p5472
aS'budweiser'
p5473
aS'good'
p5474
aS'sport'
p5475
aS'fan'
p5476
aS'management'
p5477
aS'program'
p5478
aS'partnership'
p5479
aS'blue'
p5480
aS'major'
p5481
aS'league'
p5482
aS'baseball'
p5483
aS'team'
p5484
aS'encourage'
p5485
aS'use'
p5486
aS'designated'
p5487
aS'driver'
p5488
aS'responsible'
p5489
aS'behavior'
p5490
aS'game'
p5491
aa(lp5492
S'fan'
p5493
aS'pledged'
p5494
aS'designated'
p5495
aS'driver'
p5496
aa(lp5497
S'added'
p5498
aS'team'
p5499
aS'good'
p5500
aS'sport'
p5501
aS'family'
p5502
aa(lp5503
S'family'
p5504
aS'talk'
p5505
aS'drinking'
p5506
aS'program'
p5507
aS'partnership'
p5508
aS'parenting'
p5509
aS'expert'
p5510
aS'health'
p5511
aS'professional'
p5512
aS'expanded'
p5513
aS'video'
p5514
aS'content'
p5515
aS'help'
p5516
aS'parent'
p5517
aS'prevent'
p5518
aS'underage'
p5519
aS'drinking'
p5520
aa(lp5521
S'partnership'
p5522
aS'regulator'
p5523
aS'local'
p5524
aS'police'
p5525
aS'employee'
p5526
aS'brought'
p5527
aS'global'
p5528
aS'er'
p5529
aS'responsible'
p5530
aS'day'
p5531
ag3337
aS'programme'
p5532
aS'retailer'
p5533
aS'canada'
p5534
aa(lp5535
S'addition'
p5536
aS'providing'
p5537
aS'tip'
p5538
aS'effectively'
p5539
aS'checking'
p5540
aS'id'
p5541
aS'help'
p5542
aS'prevent'
p5543
aS'underage'
p5544
aS'drinking'
p5545
aS'employee'
p5546
aS'directly'
p5547
aS'encouraged'
p5548
aS'consumer'
p5549
aS'pledge'
p5550
aS'drink'
p5551
aS'drive'
p5552
aa(lp5553
S'brazil'
p5554
aS'partnership'
p5555
aS'government'
p5556
aS'state'
p5557
aS'o'
p5558
aS'paulo'
p5559
aS'brazil'
p5560
aS'team'
p5561
aS'launched'
p5562
aS'project'
p5563
aS'educate'
p5564
aS'train'
p5565
aS'professional'
p5566
aS'responsible'
p5567
aS'alcohol'
p5568
aS'beverage'
p5569
aS'sale'
p5570
aS'consumption'
p5571
aa(lp5572
S'created'
p5573
aS'adapted'
p5574
aS'collaboration'
p5575
aS'learning'
p5576
aS'material'
p5577
aS'includes'
p5578
aS'video'
p5579
aS'student'
p5580
aS'guide'
p5581
aa(lp5582
S'content'
p5583
aS'address'
p5584
aS'history'
p5585
aS'culture'
p5586
aS'alcohol'
p5587
aS'beverage'
p5588
aS'alcohol'
p5589
aS'impact'
p5590
aS'health'
p5591
aS'importance'
p5592
aS'selling'
p5593
aS'alcohol'
p5594
aS'responsibly'
p5595
aa(lp5596
S'project'
p5597
aS'fast'
p5598
aS'way'
p5599
aS'employment'
p5600
aS'program'
p5601
aS'course'
p5602
aS'waiter'
p5603
aS'bartender'
p5604
aS'service'
p5605
aS'baristas'
p5606
aa(lp5607
S'addition'
p5608
aS'company'
p5609
aS'continued'
p5610
aS'strong'
p5611
aS'support'
p5612
aS'helping'
p5613
aS'prevent'
p5614
aS'drunk'
p5615
aS'driving'
p5616
aS'donating'
p5617
aS'breathalyzer'
p5618
aS'law'
p5619
aS'enforcement'
p5620
aS'authority'
p5621
aS'state'
p5622
aS'state'
p5623
aa(lp5624
S'donated'
p5625
aS'breathalyzer'
p5626
aS'past'
p5627
aS'decade'
p5628
aa(lp5629
S'addition'
p5630
aS'global'
p5631
aS'er'
p5632
aS'responsible'
p5633
aS'day'
p5634
aS'support'
p5635
aS'country'
p5636
aS'football'
p5637
aS'club'
p5638
aS'sponsored'
p5639
aS'brahma'
p5640
aS'remind'
p5641
aS'consumer'
p5642
aS'combination'
p5643
aS'minor'
p5644
aS'alcohol'
p5645
aS'like'
p5646
aS'play'
p5647
aS'allowed'
p5648
aa(lp5649
S'argentina'
p5650
aS'launched'
p5651
aS'new'
p5652
aS'poc'
p5653
aS'code'
p5654
aS'campaign'
p5655
aS'educate'
p5656
aS'raise'
p5657
aS'awareness'
p5658
aS'store'
p5659
aS'owner'
p5660
aS'importance'
p5661
aS'selling'
p5662
aS'product'
p5663
aS'legal'
p5664
aS'drinking'
p5665
aS'age'
p5666
aS'promoting'
p5667
aS'example'
p5668
aS'best'
p5669
aS'practice'
p5670
aS'order'
p5671
aS'encourage'
p5672
aS'positive'
p5673
aS'behavior'
p5674
aa(lp5675
S'law'
p5676
aS'prohibits'
p5677
aS'sale'
p5678
aS'alcohol'
p5679
aS'beverage'
p5680
aS'age'
p5681
aS'support'
p5682
aS'law'
p5683
aS'created'
p5684
aS'voluntary'
p5685
aS'code'
p5686
aS'retailer'
p5687
aS'sign'
p5688
aS'encouraged'
p5689
aS'communicate'
p5690
aS'material'
p5691
aS'store'
p5692
aS'alcohol'
p5693
aS'beverage'
p5694
aS'intended'
p5695
aS'legal'
p5696
aS'drinking'
p5697
aS'age'
p5698
aS'id'
p5699
aS'sell'
p5700
aS'product'
p5701
aS'legal'
p5702
aS'drinking'
p5703
aS'age'
p5704
aa(lp5705
S'set'
p5706
aS'control'
p5707
aS'group'
p5708
aS'store'
p5709
aS'receive'
p5710
aS'poc'
p5711
aS'code'
p5712
aS'program'
p5713
aS'group'
p5714
aS'store'
p5715
aS'sign'
p5716
aS'campaign'
p5717
aS'city'
p5718
aa(lp5719
S'use'
p5720
aS'campaign'
p5721
aS'received'
p5722
aS'code'
p5723
aS'material'
p5724
aS'store'
p5725
aS'image'
p5726
aS'special'
p5727
aS'facebook'
p5728
aS'app'
p5729
aS'campaign'
p5730
aa(lp5731
S'customer'
p5732
aS'responsible'
p5733
aS'retailer'
p5734
aS'applause'
p5735
aS'app'
p5736
aS'true'
p5737
aS'code'
p5738
aS'selling'
p5739
aS'alcohol'
p5740
aS'legal'
p5741
aS'drinking'
p5742
aS'age'
p5743
aa(lp5744
S'audit'
p5745
aS'using'
p5746
aS'representative'
p5747
aS'sample'
p5748
aS'control'
p5749
aS'group'
p5750
aS'retailer'
p5751
aS'representative'
p5752
aS'sample'
p5753
aS'retailer'
p5754
aS'participated'
p5755
aS'campaign'
p5756
aS'sell'
p5757
aS'individual'
p5758
aS'legal'
p5759
aS'drinking'
p5760
aS'age'
p5761
aa(lp5762
S'result'
p5763
aS'showed'
p5764
aS'retailer'
p5765
aS'participating'
p5766
aS'code'
p5767
aS'campaign'
p5768
aS'time'
p5769
aS'likely'
p5770
aS'sell'
p5771
aS'responsibly'
p5772
aS'control'
p5773
aS'group'
p5774
aS'participate'
p5775
aa(lp5776
S'research'
p5777
aS'showed'
p5778
aS'retailer'
p5779
aS'grocery'
p5780
aS'store'
p5781
aS'bar'
p5782
aS'restaurant'
p5783
aS'likely'
p5784
aS'comply'
p5785
aS'code'
p5786
aS'self'
p5787
aS'service'
p5788
aS'retailer'
p5789
aa(lp5790
S'addition'
p5791
aS'retailer'
p5792
aS'applause'
p5793
aS'facebook'
p5794
aS'app'
p5795
aS'passed'
p5796
aS'audit'
p5797
aS'won'
p5798
aS'trip'
p5799
aS'retailer'
p5800
aS'passed'
p5801
aS'audit'
p5802
aS'received'
p5803
aS'bag'
p5804
aS'campaign'
p5805
aS'help'
p5806
aS'spread'
p5807
aS'message'
p5808
aa(lp5809
S'work'
p5810
aS'local'
p5811
aS'authority'
p5812
aS'share'
p5813
aS'best'
p5814
aS'practice'
p5815
aS'poc'
p5816
aS'code'
p5817
aS'retailer'
p5818
aS'argentina'
p5819
aS'continuing'
p5820
aS'result'
p5821
aS'recognize'
p5822
aS'reward'
p5823
aS'responsible'
p5824
aS'retailer'
p5825
aa(lp5826
S'think'
p5827
aS'big'
p5828
aS'small'
p5829
aa(lp5830
S'ab'
p5831
aS'set'
p5832
aS'achieve'
p5833
aS'ambitious'
p5834
aS'environmental'
p5835
aS'goal'
p5836
aS'launch'
p5837
aS'partnership'
p5838
aS'strive'
p5839
aS'conserve'
p5840
aS'protect'
p5841
aS'water'
p5842
aa(lp5843
S'higher'
p5844
aa(lp5845
S'environmental'
p5846
aS'challenge'
p5847
aS'time'
p5848
aS'fresh'
p5849
aS'water'
p5850
aS'global'
p5851
aS'climate'
p5852
aS'change'
p5853
aS'far'
p5854
aS'reaching'
p5855
aS'company'
p5856
aS'community'
p5857
aa(lp5858
S'looking'
p5859
aS'inside'
p5860
aS'wall'
p5861
aS'solution'
p5862
aS'taking'
p5863
aS'initiative'
p5864
aS'united'
p5865
aS'nation'
p5866
aS'global'
p5867
aS'compact'
p5868
aS'environmental'
p5869
aS'programme'
p5870
aS'ceo'
p5871
aS'water'
p5872
aS'mandate'
p5873
aS'beverage'
p5874
aS'industry'
p5875
aS'environmental'
p5876
aS'roundtable'
p5877
aa(lp5878
S'challenge'
p5879
aS'opportunity'
p5880
aS'world'
p5881
aS'largest'
p5882
aS'brewer'
p5883
aS'recognize'
p5884
aS'ab'
p5885
aS'environmental'
p5886
aS'footprint'
p5887
aS'extends'
p5888
aS'far'
p5889
aS'wide'
p5890
aa(lp5891
S'scale'
p5892
aS'offer'
p5893
aS'opportunity'
p5894
aS'developing'
p5895
aS'sharing'
p5896
aS'best'
p5897
aS'practice'
p5898
aS'action'
p5899
aS'make'
p5900
aS'lasting'
p5901
aS'difference'
p5902
aa(lp5903
S'availability'
p5904
aS'high'
p5905
aS'quality'
p5906
aS'water'
p5907
aS'core'
p5908
aS'ingredient'
p5909
aS'product'
p5910
aS'pressure'
p5911
aS'human'
p5912
aS'activity'
p5913
aS'event'
p5914
aa(lp5915
S'task'
p5916
aS'identifying'
p5917
aS'managing'
p5918
aS'water'
p5919
aS'risk'
p5920
aS'increasingly'
p5921
aS'reach'
p5922
aS'company'
p5923
aa(lp5924
S'requires'
p5925
aS'comprehensive'
p5926
aS'program'
p5927
aS'includes'
p5928
aS'improving'
p5929
aS'efficiency'
p5930
aS'operation'
p5931
aS'working'
p5932
aS'supplier'
p5933
aS'better'
p5934
aS'agricultural'
p5935
aS'process'
p5936
aS'partnering'
p5937
aS'ngo'
p5938
aS'local'
p5939
aS'community'
p5940
aS'government'
p5941
aS'company'
p5942
aS'restore'
p5943
aS'preserve'
p5944
aS'critical'
p5945
aS'local'
p5946
aS'watershed'
p5947
aa(lp5948
S'manufacturing'
p5949
aS'packaging'
p5950
aS'distributing'
p5951
aS'beverage'
p5952
aS'requires'
p5953
aS'energy'
p5954
aS'material'
p5955
aS'intensive'
p5956
aS'process'
p5957
aS'grow'
p5958
aS'complex'
p5959
aS'product'
p5960
aS'portfolio'
p5961
aS'geographic'
p5962
aS'reach'
p5963
aS'expand'
p5964
aa(lp5965
S'expand'
p5966
aS'environmental'
p5967
aS'performance'
p5968
aS'continuous'
p5969
aS'improvement'
p5970
aS'company'
p5971
aS'entire'
p5972
aS'supply'
p5973
aS'chain'
p5974
aa(lp5975
S'working'
p5976
aS'reduce'
p5977
aS'emission'
p5978
aS'improve'
p5979
aS'transportation'
p5980
aS'logistics'
p5981
aS'use'
p5982
aS'lighter'
p5983
aS'weight'
p5984
aS'material'
p5985
aS'possible'
p5986
aS'material'
p5987
aa(lp5988
S'good'
p5989
aS'celebration'
p5990
aS'forum'
p5991
aS'employee'
p5992
aS'stakeholder'
p5993
aS'important'
p5994
aS'natural'
p5995
aS'resource'
p5996
aS'issue'
p5997
aa(lp5998
S'creates'
p5999
aS'healthy'
p6000
aS'competition'
p6001
aS'facility'
p6002
aS'develop'
p6003
aS'new'
p6004
aS'best'
p6005
aS'practice'
p6006
aa(lp6007
S'global'
p6008
aS'winner'
p6009
aS'brewery'
p6010
aS'china'
p6011
aS'won'
p6012
aS'success'
p6013
aS'engaging'
p6014
aS'employee'
p6015
aS'numerous'
p6016
aS'initiative'
p6017
aS'including'
p6018
aS'continued'
p6019
aS'water'
p6020
aS'conservation'
p6021
aS'action'
p6022
aS'percent'
p6023
aS'reduction'
p6024
aS'water'
p6025
aS'use'
p6026
aS'hectoliter'
p6027
aS'product'
p6028
aS'brewery'
p6029
aS'developed'
p6030
aS'best'
p6031
aS'practice'
p6032
aS'water'
p6033
aS'project'
p6034
aS'us'
p6035
aS'treated'
p6036
aS'water'
p6037
aS'inside'
p6038
aS'facility'
p6039
aS'cooling'
p6040
aS'support'
p6041
aS'community'
p6042
aS'garden'
p6043
aS'effort'
p6044
aa(lp6045
S'setting'
p6046
aS'reaching'
p6047
aS'environmental'
p6048
aS'goal'
p6049
aS'ab'
p6050
aS'dream'
p6051
aS'best'
p6052
aS'beer'
p6053
aS'company'
p6054
aS'better'
p6055
aS'world'
p6056
aS'ability'
p6057
aS'deep'
p6058
aS'global'
p6059
aS'operation'
p6060
aa(lp6061
S'past'
p6062
aS'year'
p6063
aS'approach'
p6064
aS'led'
p6065
aS'percent'
p6066
aS'reduction'
p6067
aS'water'
p6068
aS'use'
p6069
aS'percent'
p6070
aS'decrease'
p6071
aS'carbon'
p6072
aS'emission'
p6073
aS'increase'
p6074
aS'recycling'
p6075
aS'rate'
p6076
aS'percent'
p6077
aS'percent'
p6078
aS'solid'
p6079
aS'waste'
p6080
aS'byproduct'
p6081
aS'reaching'
p6082
aS'surpassing'
p6083
aS'target'
p6084
aS'set'
p6085
aS'approach'
p6086
aS'guide'
p6087
aS'set'
p6088
aS'pursue'
p6089
aS'fresh'
p6090
aS'set'
p6091
aS'goal'
p6092
aS'announce'
p6093
aS'later'
p6094
aS'develop'
p6095
aS'global'
p6096
aS'environmental'
p6097
aS'goal'
p6098
aS'input'
p6099
aS'key'
p6100
aS'internal'
p6101
aS'stakeholder'
p6102
aS'including'
p6103
aS'board'
p6104
aS'director'
p6105
aS'key'
p6106
aS'external'
p6107
aS'stakeholder'
p6108
aS'leading'
p6109
aS'environmental'
p6110
aS'social'
p6111
aS'responsibility'
p6112
aS'ngo'
p6113
aa(lp6114
S'based'
p6115
aS'zone'
p6116
aS'set'
p6117
aS'zone'
p6118
aS'facility'
p6119
aS'level'
p6120
aS'target'
p6121
aS'global'
p6122
aS'supply'
p6123
aS'brewing'
p6124
aS'better'
p6125
aS'world'
p6126
aS'team'
p6127
aa(lp6128
S'responsibility'
p6129
aS'reaching'
p6130
aS'goal'
p6131
ag4405
aS'senior'
p6132
aS'management'
p6133
aS'level'
p6134
aS'employee'
p6135
aS'facility'
p6136
aS'level'
p6137
aS'operation'
p6138
aS'compensation'
p6139
aS'employee'
p6140
aS'tied'
p6141
aS'achievement'
p6142
aa(lp6143
S'information'
p6144
aS'key'
p6145
aS'setting'
p6146
aS'managing'
p6147
aS'target'
p6148
aa(lp6149
S'heart'
p6150
aS'ability'
p6151
aS'gather'
p6152
aS'act'
p6153
aS'information'
p6154
aS'global'
p6155
aS'management'
p6156
aS'known'
p6157
aS'voyager'
p6158
aS'plant'
p6159
aS'optimization'
p6160
aS'vpo'
p6161
aa(lp6162
S'used'
p6163
aS'manage'
p6164
aS'aspect'
p6165
aS'brewery'
p6166
aS'operation'
p6167
aS'including'
p6168
aS'environmental'
p6169
aS'performance'
p6170
aa(lp6171
S'standard'
p6172
aS'case'
p6173
aS'widely'
p6174
aS'accepted'
p6175
aS'environmental'
p6176
aS'management'
p6177
aS'protocol'
p6178
aS'standard'
p6179
aa(lp6180
S'vpo'
p6181
aS'framework'
p6182
aS'ab'
p6183
aS'us'
p6184
aS'benchmark'
p6185
aS'water'
p6186
aS'energy'
p6187
aS'use'
p6188
aS'performance'
p6189
aS'identify'
p6190
aS'best'
p6191
aS'practice'
p6192
aS'monitor'
p6193
aS'progress'
p6194
aa(lp6195
S'accountability'
p6196
aS'big'
p6197
aS'vpo'
p6198
aS'framework'
p6199
aa(lp6200
S'end'
p6201
aS'percent'
p6202
aS'beverage'
p6203
aS'plant'
p6204
aS'world'
p6205
aS'certified'
p6206
aS'accordance'
p6207
aS'vpo'
p6208
aS'requirement'
p6209
aa(lp6210
S'plant'
p6211
aS'certified'
p6212
aS'newly'
p6213
aS'activity'
p6214
aS'reach'
p6215
aS'compliance'
p6216
aa(lp6217
S'ab'
p6218
aS'began'
p6219
aS'researching'
p6220
aS'life'
p6221
aS'cycle'
p6222
aS'analysis'
p6223
aS'lca'
p6224
aS'tool'
p6225
aS'help'
p6226
aS'understand'
p6227
aS'environmental'
p6228
aS'economic'
p6229
aS'opportunity'
p6230
aS'impact'
p6231
aS'product'
p6232
aS'entire'
p6233
aS'value'
p6234
aS'chain'
p6235
aa(lp6236
S'plan'
p6237
aS'pilot'
p6238
aS'tool'
p6239
aS'taking'
p6240
aS'account'
p6241
aS'raw'
p6242
aS'material'
p6243
aS'value'
p6244
aS'added'
p6245
aS'manufacturing'
p6246
aS'process'
p6247
aS'end'
p6248
aS'life'
p6249
aa(lp6250
S'expect'
p6251
aS'implemented'
p6252
aS'lca'
p6253
aS'tool'
p6254
aS'play'
p6255
aS'important'
p6256
aS'role'
p6257
aS'helping'
p6258
aS'achieve'
p6259
aS'future'
p6260
aS'environmental'
p6261
aS'cost'
p6262
aS'saving'
p6263
aS'goal'
p6264
aa(lp6265
S'holistic'
p6266
aS'approach'
p6267
aS'water'
p6268
aS'management'
p6269
aS'critical'
p6270
aS'level'
p6271
aS'operation'
p6272
aS'supply'
p6273
aS'chain'
p6274
aS'watershed'
p6275
aa(lp6276
S'watershed'
p6277
aS'level'
p6278
aS'ab'
p6279
aS'activity'
p6280
aS'brazil'
p6281
aS'cyan'
p6282
aS'movement'
p6283
aS'pilot'
p6284
aS'program'
p6285
aS'landowner'
p6286
aS'protect'
p6287
aS'water'
p6288
aS'quality'
p6289
aS'example'
p6290
aS'leading'
p6291
aS'practice'
p6292
aa(lp6293
S'look'
p6294
aS'forward'
p6295
aS'seeing'
p6296
aS'ab'
p6297
aS'address'
p6298
aS'challenge'
p6299
aS'promoting'
p6300
aS'sustainable'
p6301
aS'water'
p6302
aS'management'
p6303
aS'supply'
p6304
aS'chain'
p6305
aS'working'
p6306
aS'variety'
p6307
aS'water'
p6308
aS'user'
p6309
aS'different'
p6310
aS'manager'
p6311
aS'advisory'
p6312
aS'service'
p6313
aS'business'
p6314
aS'social'
p6315
aS'responsibility'
p6316
aS'high'
p6317
aS'quality'
p6318
aS'water'
p6319
aS'critical'
p6320
aS'product'
p6321
aS'central'
p6322
aS'process'
p6323
aS'use'
p6324
aS'produce'
p6325
aS'steam'
p6326
aS'production'
p6327
aS'cooling'
p6328
aS'cleaning'
p6329
aa(lp6330
S'rapid'
p6331
aS'population'
p6332
aS'growth'
p6333
aS'economic'
p6334
aS'development'
p6335
aS'creating'
p6336
aS'water'
p6337
aS'time'
p6338
aS'history'
p6339
aa(lp6340
S'span'
p6341
aS'human'
p6342
aS'freshwater'
p6343
aS'consumption'
p6344
aS'percent'
p6345
aS'today'
p6346
aS'world'
p6347
aS'population'
p6348
aS'water'
p6349
aS'stressed'
p6350
aS'region'
p6351
aa(lp6352
S'appropriate'
p6353
aS'action'
p6354
aS'proportion'
p6355
aS'decade'
p6356
aa(lp6357
S'ab'
p6358
aS'production'
p6359
aS'facility'
p6360
aS'water'
p6361
aS'stressed'
p6362
aS'region'
p6363
aS'taking'
p6364
aS'action'
p6365
aS'conserve'
p6366
aS'resource'
p6367
aS'restore'
p6368
aS'preserve'
p6369
aS'ecosystem'
p6370
aS'support'
p6371
aa(lp6372
S'inside'
p6373
aS'facility'
p6374
aS'signatory'
p6375
aS'ceo'
p6376
aS'water'
p6377
aS'mandate'
p6378
aS'unique'
p6379
aS'public'
p6380
aS'private'
p6381
aS'initiative'
p6382
aS'designed'
p6383
aS'advance'
p6384
aS'solution'
p6385
aS'partnership'
p6386
aS'united'
p6387
aS'nation'
p6388
aS'ngo'
p6389
aS'government'
p6390
aS'supplier'
p6391
aS'stakeholder'
p6392
aa(lp6393
S'internal'
p6394
aS'efficiency'
p6395
aS'comprehensive'
p6396
aS'risk'
p6397
aS'assessment'
p6398
aS'ab'
p6399
aS'reached'
p6400
aS'leading'
p6401
aS'use'
p6402
aS'average'
p6403
aS'hectoliter'
p6404
aS'water'
p6405
aS'hectoliter'
p6406
aS'product'
p6407
aS'produced'
p6408
aS'hl'
p6409
aS'hl'
p6410
aS'percent'
p6411
aS'reduction'
p6412
aS'water'
p6413
aS'use'
p6414
aS'year'
p6415
aS'saving'
p6416
aS'million'
p6417
aS'usd'
p6418
aa(lp6419
S'perspective'
p6420
aS'water'
p6421
aS'saved'
p6422
aS'improving'
p6423
aS'efficiency'
p6424
aS'total'
p6425
aS'million'
p6426
aS'hectoliter'
p6427
aS'water'
p6428
aS'needed'
p6429
aS'produce'
p6430
aS'billion'
p6431
aS'can'
p6432
aS'ab'
p6433
aS'product'
p6434
aa(lp6435
S'percent'
p6436
aS'yearly'
p6437
aS'production'
p6438
aS'water'
p6439
aS'critical'
p6440
aS'business'
p6441
aS'community'
p6442
aS'ab'
p6443
aS'annual'
p6444
aS'water'
p6445
aS'risk'
p6446
aS'assessment'
p6447
aS'beverage'
p6448
aS'manufacturing'
p6449
aS'facility'
p6450
aS'world'
p6451
aa(lp6452
S'step'
p6453
aS'process'
p6454
aa(lp6455
S'apply'
p6456
aS'high'
p6457
aS'level'
p6458
aS'screen'
p6459
aS'using'
p6460
aS'globally'
p6461
aS'recognized'
p6462
aS'water'
p6463
aS'risk'
p6464
aS'assessment'
p6465
aS'tool'
p6466
aS'internal'
p6467
aS'survey'
p6468
aS'cover'
p6469
aS'physical'
p6470
aS'regulatory'
p6471
aS'reputation'
p6472
aS'risk'
p6473
aS'area'
p6474
aa(lp6475
S'screen'
p6476
aS'facility'
p6477
aS'risk'
p6478
aS'look'
p6479
aS'facility'
p6480
aS'using'
p6481
aS'custom'
p6482
aS'designed'
p6483
aS'assessment'
p6484
aS'tool'
p6485
aS'requires'
p6486
aS'action'
p6487
aS'plan'
p6488
aS'manage'
p6489
aS'reduce'
p6490
aS'risk'
p6491
aa(lp6492
S'enhance'
p6493
aS'water'
p6494
aS'risk'
p6495
aS'assessment'
p6496
aS'process'
p6497
aS'integrated'
p6498
aS'vpo'
p6499
aS'management'
p6500
aS'regularly'
p6501
aS'engage'
p6502
aS'expert'
p6503
aS'company'
p6504
aS'technical'
p6505
aS'meeting'
p6506
aS'quarterly'
p6507
aS'call'
p6508
aa(lp6509
S'percent'
p6510
aS'brewery'
p6511
aS'high'
p6512
aS'risk'
p6513
aS'process'
p6514
aa(lp6515
S'currently'
p6516
aS'high'
p6517
aS'risk'
p6518
aS'location'
p6519
aS'north'
p6520
aS'south'
p6521
aS'america'
p6522
aS'china'
p6523
aa(lp6524
S'total'
p6525
aS'hectoliter'
p6526
aS'water'
p6527
aS'use'
p6528
aS'data'
p6529
aS'encompass'
p6530
aS'beverage'
p6531
aS'facility'
p6532
aa(lp6533
S'can'
p6534
aS'beer'
p6535
aS'totaling'
p6536
aS'year'
p6537
aS'water'
p6538
aS'saving'
p6539
aS'hectoliter'
p6540
aS'billion'
p6541
aS'ml'
p6542
aS'can'
p6543
aa(lp6544
S'number'
p6545
aS'company'
p6546
aS'current'
p6547
aS'usage'
p6548
aS'rate'
p6549
aS'hectoliter'
p6550
aS'water'
p6551
aS'hectoliter'
p6552
aS'production'
p6553
aS'equal'
p6554
aS'billion'
p6555
aS'can'
p6556
aa(lp6557
S'external'
p6558
aS'multistakeholder'
p6559
aS'partnership'
p6560
aS'cyan'
p6561
aS'movement'
p6562
aS'need'
p6563
aS'collective'
p6564
aS'action'
p6565
aS'water'
p6566
aS'issue'
p6567
aS'greater'
p6568
aa(lp6569
S'shared'
p6570
aS'water'
p6571
aS'risk'
p6572
aS'new'
p6573
aS'collaborating'
p6574
aS'multiple'
p6575
aS'stakeholder'
p6576
aS'complex'
p6577
aS'ab'
p6578
aS'finding'
p6579
aS'way'
p6580
aS'make'
p6581
aS'work'
p6582
aa(lp6583
S'cyan'
p6584
aS'movement'
p6585
aS'project'
p6586
aS'ab'
p6587
aS'launched'
p6588
aS'brazil'
p6589
aS'world'
p6590
aS'water'
p6591
aS'day'
p6592
aS'excellent'
p6593
aS'example'
p6594
aa(lp6595
S'project'
p6596
aS'named'
p6597
aS'cyan'
p6598
aS'blue'
p6599
aS'color'
p6600
aS'water'
p6601
aS'movement'
p6602
aS'water'
p6603
aS'value'
p6604
aa(lp6605
S'cyan'
p6606
aS'based'
p6607
aS'initiative'
p6608
aS'designed'
p6609
aS'promote'
p6610
aS'water'
p6611
aS'conservation'
p6612
aS'water'
p6613
aS'stressed'
p6614
aS'area'
p6615
aa(lp6616
S'important'
p6617
aS'component'
p6618
aS'cyan'
p6619
aS'basin'
p6620
aS'project'
p6621
aS'focus'
p6622
aS'specifically'
p6623
aS'recovery'
p6624
aS'conservation'
p6625
aS'important'
p6626
aS'water'
p6627
aS'basin'
p6628
aS'brazil'
p6629
aa(lp6630
S'basin'
p6631
aS'project'
p6632
aS'effort'
p6633
aS'conducted'
p6634
aS'partnership'
p6635
aS'world'
p6636
aS'wildlife'
p6637
aS'fund'
p6638
aS'local'
p6639
aS'community'
p6640
aS'government'
p6641
aS'study'
p6642
aS'drive'
p6643
aS'conservation'
p6644
aS'effort'
p6645
aS'basin'
p6646
aS'provides'
p6647
aS'water'
p6648
aS'used'
p6649
aS'brewery'
p6650
aa(lp6651
S'began'
p6652
aS'planning'
p6653
aS'new'
p6654
aS'stage'
p6655
aS'basin'
p6656
aS'project'
p6657
aS'jaguari'
p6658
aS'na'
p6659
aS'region'
p6660
aS'brazil'
p6661
aS'conjunction'
p6662
aS'tnc'
p6663
aS'world'
p6664
aS'largest'
p6665
aS'environmental'
p6666
aS'organization'
p6667
aa(lp6668
S'aim'
p6669
aS'conserve'
p6670
aS'water'
p6671
aS'basin'
p6672
aS'supply'
p6673
aS'portion'
p6674
aS'water'
p6675
aS'greater'
p6676
ag5558
aS'paulo'
p6677
aS'region'
p6678
aS'beverage'
p6679
aS'facility'
p6680
aS'jaguari'
p6681
aS'na'
p6682
aa(lp6683
S'work'
p6684
aS'launched'
p6685
aS'world'
p6686
aS'water'
p6687
aS'day'
p6688
aS'march'
p6689
aS'creating'
p6690
aS'group'
p6691
aS'local'
p6692
aS'partner'
p6693
aS'identifying'
p6694
aS'critical'
p6695
aS'area'
p6696
aS'restoration'
p6697
aa(lp6698
S'idea'
p6699
aS'natural'
p6700
aS'area'
p6701
aS'provide'
p6702
aS'range'
p6703
aS'service'
p6704
aS'society'
p6705
aS'supply'
p6706
aS'quality'
p6707
aS'water'
p6708
aS'important'
p6709
aa(lp6710
S'project'
p6711
aS'tnc'
p6712
aS'effort'
p6713
aS'mobilize'
p6714
aS'public'
p6715
aS'private'
p6716
aS'society'
p6717
aS'economically'
p6718
aS'solution'
p6719
aS'focused'
p6720
aS'conservation'
p6721
aS'restoration'
p6722
aS'natural'
p6723
aS'capital'
p6724
aS'ensure'
p6725
aS'supply'
p6726
aS'quality'
p6727
aS'water'
p6728
aS'large'
p6729
aS'center'
p6730
aa(lp6731
S'important'
p6732
aS'aspect'
p6733
aS'cyan'
p6734
aS'initiative'
p6735
aS'cyan'
p6736
aS'partnership'
p6737
aS'established'
p6738
aS'local'
p6739
aS'water'
p6740
aS'utility'
p6741
aS'engage'
p6742
aS'consumer'
p6743
aS'online'
p6744
aS'educate'
p6745
aS'sound'
p6746
aS'water'
p6747
aS'management'
p6748
aS'practice'
p6749
aS'reward'
p6750
aS'positive'
p6751
aS'effort'
p6752
aa(lp6753
S'incentive'
p6754
aa(lp6755
S'lower'
p6756
aS'water'
p6757
aS'point'
p6758
aS'awarded'
p6759
aS'participant'
p6760
aS'reducing'
p6761
aS'maintaining'
p6762
aS'water'
p6763
aS'consumption'
p6764
aS'level'
p6765
aS'home'
p6766
aa(lp6767
S'point'
p6768
aS'discount'
p6769
aS'product'
p6770
aS'online'
p6771
aS'retailer'
p6772
aa(lp6773
S'end'
p6774
aS'aspect'
p6775
aS'cyan'
p6776
aS'city'
p6777
ag5558
aS'paulo'
p6778
aS'saved'
p6779
aS'million'
p6780
aS'liter'
p6781
aS'water'
p6782
aa(lp6783
S'grow'
p6784
aS'save'
p6785
aS'million'
p6786
aS'ab'
p6787
aS'employee'
p6788
aS'globe'
p6789
aS'participated'
p6790
aS'light'
p6791
aS'initiative'
p6792
aS'promote'
p6793
aS'importance'
p6794
aS'water'
p6795
aS'conservation'
p6796
aS'work'
p6797
aS'home'
p6798
aa(lp6799
S'grow'
p6800
aS'save'
p6801
aS'million'
p6802
aS'launched'
p6803
aS'conjunction'
p6804
aS'world'
p6805
aS'environment'
p6806
aS'day'
p6807
aS'encouraged'
p6808
aS'employee'
p6809
aS'stop'
p6810
aS'face'
p6811
aS'set'
p6812
aS'period'
p6813
aS'time'
p6814
aa(lp6815
S'nearly'
p6816
aS'employee'
p6817
aS'participated'
p6818
aS'worldwide'
p6819
aa(lp6820
S'employee'
p6821
aS'family'
p6822
aS'consumer'
p6823
aS'united'
p6824
aS'state'
p6825
aS'pledged'
p6826
aS'save'
p6827
aS'million'
p6828
aS'liter'
p6829
aS'water'
p6830
aS'turning'
p6831
aS'water'
p6832
aS'growing'
p6833
aa(lp6834
S'achieved'
p6835
aS'pledge'
p6836
aS'employee'
p6837
aS'family'
p6838
aS'member'
p6839
aa(lp6840
S'pledge'
p6841
aS'budweiser'
p6842
aS'brand'
p6843
aS'facebook'
p6844
aS'page'
p6845
aS'liter'
p6846
aS'saving'
p6847
aa(lp6848
S'greenhouse'
p6849
aS'gas'
p6850
aS'emission'
p6851
aS'energy'
p6852
aS'energy'
p6853
aS'price'
p6854
aS'global'
p6855
aS'climate'
p6856
aS'change'
p6857
aS'associated'
p6858
aS'greenhouse'
p6859
aS'gas'
p6860
aS'ghg'
p6861
aS'emission'
p6862
aS'energy'
p6863
aS'strategic'
p6864
aS'focus'
p6865
aS'ab'
p6866
aS'year'
p6867
aa(lp6868
S'comprehensive'
p6869
aS'approach'
p6870
aS'reducing'
p6871
aS'cost'
p6872
aS'emission'
p6873
aS'continuously'
p6874
aS'improving'
p6875
aS'efficiency'
p6876
aS'switching'
p6877
aS'lower'
p6878
aS'emission'
p6879
aS'cost'
p6880
aS'effective'
p6881
aS'fuel'
p6882
aS'using'
p6883
aS'renewables'
p6884
aS'feasible'
p6885
aS'participating'
p6886
aS'carbon'
p6887
aS'market'
p6888
aS'make'
p6889
aS'business'
p6890
aS'sense'
p6891
aa(lp6892
S'surpassing'
p6893
aS'global'
p6894
aS'reduction'
p6895
aS'goal'
p6896
aS'ab'
p6897
aS'effort'
p6898
aS'paid'
p6899
aS'excellent'
p6900
aa(lp6901
S'production'
p6902
aS'increased'
p6903
aS'ghg'
p6904
aS'emission'
p6905
aS'energy'
p6906
aS'use'
p6907
aS'significantly'
p6908
aa(lp6909
S'goal'
p6910
aS'cut'
p6911
aS'percent'
p6912
aS'hectoliter'
p6913
aS'product'
p6914
aS'end'
p6915
aS'using'
p6916
aa(lp6917
S'pleased'
p6918
aS'report'
p6919
aS'surpassed'
p6920
aS'target'
p6921
aS'ghgs'
p6922
aS'nearly'
p6923
aS'percent'
p6924
aS'energy'
p6925
aS'use'
p6926
aS'percent'
p6927
aa(lp6928
S'china'
p6929
aS'brewery'
p6930
aS'led'
p6931
aS'effort'
p6932
aS'reducing'
p6933
aS'ghgs'
p6934
aS'energy'
p6935
aS'use'
p6936
aS'nearly'
p6937
aS'percent'
p6938
aS'reduced'
p6939
aS'energy'
p6940
aS'consumption'
p6941
aS'saved'
p6942
aS'company'
p6943
aS'approximately'
p6944
aS'million'
p6945
aS'usd'
p6946
aS'ability'
p6947
aS'lower'
p6948
aS'ghg'
p6949
aS'emission'
p6950
aS'position'
p6951
aS'better'
p6952
aS'potential'
p6953
aS'carbon'
p6954
ag4410
aS'regulation'
p6955
aS'future'
p6956
aS'reducing'
p6957
aS'impact'
p6958
aS'environment'
p6959
aS'today'
p6960
aa(lp6961
S'ghg'
p6962
aS'emission'
p6963
aS'using'
p6964
aS'scope'
p6965
aS'direct'
p6966
aS'scope'
p6967
aS'emission'
p6968
aS'result'
p6969
aS'production'
p6970
aS'facility'
p6971
aS'based'
p6972
aS'widely'
p6973
aS'accepted'
p6974
aS'world'
p6975
aS'business'
p6976
aS'council'
p6977
aS'sustainable'
p6978
aS'development'
p6979
aS'world'
p6980
aS'resource'
p6981
aS'institute'
p6982
aS'ghg'
p6983
aS'protocol'
p6984
aa(lp6985
S'scope'
p6986
aS'account'
p6987
aS'percent'
p6988
aS'emission'
p6989
aS'includes'
p6990
aS'equivalent'
p6991
ag3214
aS'fuel'
p6992
aS'used'
p6993
aS'manufacturing'
p6994
aS'process'
p6995
aS'plant'
p6996
aS'generate'
p6997
aS'site'
p6998
aS'electricity'
p6999
aa(lp7000
S'scope'
p7001
aS'account'
p7002
aS'percent'
p7003
aS'emission'
p7004
aS'purchased'
p7005
aS'electricity'
p7006
aa(lp7007
S'document'
p7008
aS'scope'
p7009
aS'emission'
p7010
aS'supplier'
p7011
aS'transportation'
p7012
aS'logistics'
p7013
aS'activity'
p7014
aS'page'
p7015
aa(lp7016
S'total'
p7017
aS'ghg'
p7018
aS'emission'
p7019
aS'data'
p7020
aS'encompass'
p7021
aS'beverage'
p7022
aS'facility'
p7023
aS'operation'
p7024
aS'including'
p7025
aS'malt'
p7026
aS'plant'
p7027
aS'packaging'
p7028
aS'facility'
p7029
aa(lp7030
S'total'
p7031
aS'energy'
p7032
aS'consumption'
p7033
aS'hectoliter'
p7034
aS'ghg'
p7035
aS'emission'
p7036
aS'hectoliter'
p7037
aS'energy'
p7038
aS'consumption'
p7039
aS'data'
p7040
aS'encompass'
p7041
aS'beverage'
p7042
aS'facility'
p7043
aa(lp7044
S'energy'
p7045
aS'consumption'
p7046
aS'includes'
p7047
aS'fuel'
p7048
aS'used'
p7049
aS'boiler'
p7050
aS'generation'
p7051
aS'plant'
p7052
aS'generate'
p7053
aS'site'
p7054
aS'electricity'
p7055
aS'purchased'
p7056
aS'electricity'
p7057
aa(lp7058
S'renewable'
p7059
aS'energy'
p7060
aS'using'
p7061
aS'renewable'
p7062
aS'energy'
p7063
aS'plant'
p7064
aS'world'
p7065
aS'help'
p7066
aS'reduce'
p7067
aS'cost'
p7068
aS'ghg'
p7069
aS'emission'
p7070
aa(lp7071
S'renewables'
p7072
aS'nearly'
p7073
aS'percent'
p7074
aS'global'
p7075
aS'energy'
p7076
aa(lp7077
S'ab'
p7078
aS'variety'
p7079
aS'renewable'
p7080
aS'energy'
p7081
aS'source'
p7082
aS'including'
p7083
aS'solar'
p7084
aS'wind'
p7085
aS'bio'
p7086
aS'mass'
p7087
aS'bio'
p7088
aS'energy'
p7089
aS'recovery'
p7090
aS'system'
p7091
aS'generate'
p7092
aS'bio'
p7093
aS'gas'
p7094
aS'fuel'
p7095
aS'industrial'
p7096
aS'byproduct'
p7097
aS'operation'
p7098
aa(lp7099
S'largest'
p7100
aS'user'
p7101
aS'solar'
p7102
aS'power'
p7103
ag5279
aS'brewing'
p7104
aS'industry'
p7105
aS'operation'
p7106
aS'brazil'
p7107
aS'obtain'
p7108
aS'nearly'
p7109
aS'percent'
p7110
aS'thermal'
p7111
aS'energy'
p7112
aS'need'
p7113
aS'renewable'
p7114
aS'bio'
p7115
aS'mass'
p7116
aS'bio'
p7117
aS'gas'
p7118
aa(lp7119
S'able'
p7120
aS'cost'
p7121
aS'effectively'
p7122
aS'reduce'
p7123
aS'emission'
p7124
aS'participating'
p7125
aS'carbon'
p7126
aS'market'
p7127
aa(lp7128
S'developing'
p7129
aS'renewable'
p7130
aS'energy'
p7131
aS'project'
p7132
aS'create'
p7133
aS'generation'
p7134
aS'capacity'
p7135
aS'able'
p7136
aS'secure'
p7137
aS'certified'
p7138
aS'carbon'
p7139
aS'credit'
p7140
aS'sold'
p7141
aS'company'
p7142
aS'help'
p7143
aS'meet'
p7144
aS'emission'
p7145
aS'reduction'
p7146
aS'goal'
p7147
aa(lp7148
S'renewable'
p7149
aS'energy'
p7150
aS'installation'
p7151
aS'brazil'
p7152
aS'part'
p7153
aS'south'
p7154
aS'america'
p7155
aS'registered'
p7156
aS'united'
p7157
aS'nation'
p7158
aS'framework'
p7159
aS'convention'
p7160
aS'climate'
p7161
aS'change'
p7162
aS'produce'
p7163
aS'certified'
p7164
aS'carbon'
p7165
aS'credit'
p7166
aS'expect'
p7167
aS'sell'
p7168
aS'future'
p7169
aa(lp7170
S'material'
p7171
aS'recycling'
p7172
aS'grain'
p7173
aS'used'
p7174
aS'beer'
p7175
aS'filtering'
p7176
aS'medium'
p7177
aS'used'
p7178
aS'beer'
p7179
aS'glass'
p7180
aS'aluminum'
p7181
aS'plastic'
p7182
aS'paper'
p7183
aS'packaging'
p7184
aS'beverage'
p7185
aS'manufacturing'
p7186
aS'material'
p7187
aS'intensive'
p7188
aS'business'
p7189
aS'surpassing'
p7190
aS'global'
p7191
aS'recycling'
p7192
aS'reuse'
p7193
aS'rate'
p7194
aS'year'
p7195
aS'commitment'
p7196
aS'achieve'
p7197
aS'percent'
p7198
aS'recycle'
p7199
aS'rate'
p7200
aS'solid'
p7201
aS'waste'
p7202
aS'end'
p7203
aS'actual'
p7204
aS'rate'
p7205
aS'percent'
p7206
aS'plant'
p7207
aS'worldwide'
p7208
aS'achieving'
p7209
aS'zero'
p7210
aS'waste'
p7211
aS'landfill'
p7212
aS'status'
p7213
aS'defined'
p7214
aS'zero'
p7215
aS'waste'
p7216
aS'international'
p7217
aS'percent'
p7218
aS'solid'
p7219
aS'waste'
p7220
aS'landfill'
p7221
aa(lp7222
S'effort'
p7223
aS'pursuit'
p7224
aS'goal'
p7225
aS'cut'
p7226
aS'waste'
p7227
aS'landfill'
p7228
aS'nearly'
p7229
aS'percent'
p7230
aS'overall'
p7231
aS'material'
p7232
aS'use'
p7233
aS'increased'
p7234
aa(lp7235
S'bigger'
p7236
aS'packaging'
p7237
aS'established'
p7238
aS'global'
p7239
aS'packaging'
p7240
aS'best'
p7241
aS'practice'
p7242
aS'benchmark'
p7243
aS'continuously'
p7244
aS'challenge'
p7245
aS'zone'
p7246
aS'implement'
p7247
aS'best'
p7248
aS'class'
p7249
aS'sustainable'
p7250
aS'packaging'
p7251
aS'solution'
p7252
aa(lp7253
S'addition'
p7254
aS'value'
p7255
aS'input'
p7256
aS'consumer'
p7257
aS'stakeholder'
p7258
aS'created'
p7259
aS'open'
p7260
aS'innovation'
p7261
aS'collect'
p7262
aS'idea'
p7263
aa(lp7264
S'research'
p7265
aS'development'
p7266
aS'team'
p7267
aS'working'
p7268
aS'university'
p7269
aS'institute'
p7270
aS'order'
p7271
aS'increase'
p7272
aS'packaging'
p7273
aS'light'
p7274
aa(lp7275
S'manufacturing'
p7276
aS'new'
p7277
aS'plastic'
p7278
aS'bottle'
p7279
aS'percent'
p7280
aS'recycled'
p7281
aS'bottle'
p7282
aS'numerous'
p7283
aS'environmental'
p7284
aS'economic'
p7285
aS'benefit'
p7286
aa(lp7287
S'current'
p7288
aS'production'
p7289
aS'scale'
p7290
aS'include'
p7291
aS'using'
p7292
aS'ton'
p7293
aS'packaging'
p7294
aS'material'
p7295
aS'saving'
p7296
aS'landfill'
p7297
aS'ton'
p7298
aS'pet'
p7299
aS'bottle'
p7300
aS'recycled'
p7301
aS'percent'
p7302
aS'carbon'
p7303
aS'using'
p7304
aS'percent'
p7305
aS'energy'
p7306
aS'using'
p7307
aS'percent'
p7308
aS'water'
p7309
aa(lp7310
S'new'
p7311
aS'bottle'
p7312
aS'possible'
p7313
aS'innovative'
p7314
aS'multistakeholder'
p7315
aS'initiative'
p7316
aS'encouraged'
p7317
aS'recycling'
p7318
aS'beverage'
p7319
aS'bottle'
p7320
aa(lp7321
S'year'
p7322
aS'local'
p7323
aS'recycling'
p7324
aS'packaging'
p7325
aS'policy'
p7326
aS'brazil'
p7327
aS'local'
p7328
aS'brewery'
p7329
aS'use'
p7330
aS'post'
p7331
aS'consumer'
p7332
aS'recyclables'
p7333
aS'packaging'
p7334
aa(lp7335
S'working'
p7336
aS'recycling'
p7337
aS'industry'
p7338
aS'consumer'
p7339
aS'ngo'
p7340
aS'government'
p7341
aS'able'
p7342
aS'develop'
p7343
aS'recycling'
p7344
aS'bottle'
p7345
aS'pet'
p7346
aS'reuse'
p7347
aS'packaging'
p7348
aa(lp7349
S'using'
p7350
aS'packaging'
p7351
aS'material'
p7352
aS'ab'
p7353
aS'constantly'
p7354
aS'look'
p7355
aS'way'
p7356
aS'use'
p7357
aS'lighter'
p7358
aS'weight'
p7359
aS'recycled'
p7360
aS'material'
p7361
aS'packaging'
p7362
aS'reduces'
p7363
aS'cost'
p7364
aS'cut'
p7365
aS'waste'
p7366
aS'consumption'
p7367
aS'natural'
p7368
aS'resource'
p7369
aS'transportation'
p7370
aS'fuel'
p7371
aa(lp7372
S'initiative'
p7373
aS'approach'
p7374
aa(lp7375
S'united'
p7376
aS'kingdom'
p7377
aS'redesigned'
p7378
aS'ml'
p7379
aS'beck'
p7380
aS'beck'
p7381
aS'blue'
p7382
aS'bottle'
p7383
aS'use'
p7384
aS'glass'
p7385
aS'maintaining'
p7386
aS'strict'
p7387
aS'quality'
p7388
aS'standard'
p7389
aa(lp7390
S'new'
p7391
aS'bottle'
p7392
aS'percent'
p7393
aS'lighter'
p7394
aS'require'
p7395
aS'energy'
p7396
aa(lp7397
S'expect'
p7398
aS'change'
p7399
aS'impact'
p7400
aS'million'
p7401
aS'bottle'
p7402
aS'saving'
p7403
aS'total'
p7404
aS'metric'
p7405
aS'ton'
p7406
aS'glass'
p7407
aS'nearly'
p7408
aS'metric'
p7409
aS'ton'
p7410
ag3214
aS'emission'
p7411
aS'manufacturing'
p7412
aS'process'
p7413
aS'roughly'
p7414
aS'equivalent'
p7415
aS'ghgs'
p7416
aS'released'
p7417
ag5279
aS'k'
p7418
aS'power'
p7419
aS'home'
p7420
aS'year'
p7421
aa(lp7422
S'lighter'
p7423
aS'weight'
p7424
aS'bottle'
p7425
aS'help'
p7426
aS'cut'
p7427
aS'transportation'
p7428
aS'related'
p7429
aS'ghg'
p7430
aS'emission'
p7431
aa(lp7432
S'example'
p7433
aS'effort'
p7434
aS'reduce'
p7435
aS'material'
p7436
aS'use'
p7437
aS'packaging'
p7438
aS'world'
p7439
aS'include'
p7440
aS'making'
p7441
aS'brick'
p7442
aS'brewery'
p7443
aS'byproduct'
p7444
aS'finishing'
p7445
aS'touch'
p7446
aS'brewing'
p7447
aS'process'
p7448
aS'make'
p7449
aS'beer'
p7450
aS'filtering'
p7451
aS'yeast'
p7452
aS'protein'
p7453
aS'product'
p7454
aa(lp7455
S'efficient'
p7456
aS'filtering'
p7457
ag5195
aS'available'
p7458
aS'known'
p7459
aS'kieselguhr'
p7460
aS'earth'
p7461
aS'fine'
p7462
aa(lp7463
S'yeast'
p7464
aS'solid'
p7465
aS'kieselguhr'
p7466
aS'reach'
p7467
aS'end'
p7468
aS'life'
p7469
aS'filtering'
p7470
aS'medium'
p7471
aa(lp7472
S'new'
p7473
aS'life'
p7474
aS'primary'
p7475
aS'material'
p7476
aS'manufacturing'
p7477
aS'high'
p7478
aS'quality'
p7479
aS'building'
p7480
aS'brick'
p7481
aa(lp7482
S'ab'
p7483
aS'aggressive'
p7484
aS'effort'
p7485
aS'minimize'
p7486
aS'waste'
p7487
aS'landfill'
p7488
aS'brewery'
p7489
aS'brazil'
p7490
aS'recycled'
p7491
aS'ton'
p7492
aS'spent'
p7493
aS'kieselguhr'
p7494
aS'brick'
p7495
aa(lp7496
S'build'
p7497
aS'nearly'
p7498
aS'brazilian'
p7499
aS'home'
p7500
aa(lp7501
S'example'
p7502
aS'commitment'
p7503
aS'capture'
p7504
aS'value'
p7505
aS'byproduct'
p7506
aS'possible'
p7507
aa(lp7508
S'responsible'
p7509
aS'supply'
p7510
aS'chain'
p7511
aS'sourcing'
p7512
aS'ab'
p7513
aS'like'
p7514
aS'large'
p7515
aS'company'
p7516
aS'increasingly'
p7517
aS'look'
p7518
aS'entire'
p7519
aS'value'
p7520
aS'chain'
p7521
aS'opportunity'
p7522
aS'reduce'
p7523
aS'cost'
p7524
aS'reduce'
p7525
aS'environmental'
p7526
aS'impact'
p7527
aS'foster'
p7528
aS'economic'
p7529
aS'supplier'
p7530
aa(lp7531
S'know'
p7532
aS'significant'
p7533
aS'portion'
p7534
aS'water'
p7535
aS'ghg'
p7536
aS'footprint'
p7537
aS'associated'
p7538
aS'activity'
p7539
aS'supplier'
p7540
aa(lp7541
S'understanding'
p7542
aS'impact'
p7543
aS'complex'
p7544
aS'working'
p7545
aS'hard'
p7546
aa(lp7547
S'time'
p7548
aS'ensure'
p7549
aS'company'
p7550
aS'purchase'
p7551
aS'product'
p7552
aS'service'
p7553
aS'operating'
p7554
aS'ethical'
p7555
aS'responsible'
p7556
aS'manner'
p7557
aa(lp7558
S'pursuit'
p7559
aS'responsible'
p7560
aS'sourcing'
p7561
aS'goal'
p7562
aS'industry'
p7563
aS'ngo'
p7564
aS'initiative'
p7565
aS'seek'
p7566
aS'improve'
p7567
aS'supply'
p7568
aS'chain'
p7569
aS'performance'
p7570
aa(lp7571
S'member'
p7572
aS'aim'
p7573
aS'progress'
p7574
aS'global'
p7575
aS'forum'
p7576
aS'consumer'
p7577
aS'good'
p7578
aS'company'
p7579
aS'sponsored'
p7580
aS'european'
p7581
aS'brand'
p7582
aS'association'
p7583
aS'grocery'
p7584
aS'association'
p7585
aa(lp7586
S'group'
p7587
aS'purpose'
p7588
aS'promote'
p7589
aS'responsible'
p7590
aS'supply'
p7591
aS'chain'
p7592
aS'sourcing'
p7593
aS'standard'
p7594
aS'covering'
p7595
aS'labor'
p7596
aS'practice'
p7597
aS'health'
p7598
aS'safety'
p7599
aS'environmental'
p7600
aS'management'
p7601
aS'business'
p7602
aS'integrity'
p7603
aa(lp7604
S'member'
p7605
aS'report'
p7606
aS'audit'
p7607
aS'supplier'
p7608
aS'aim'
p7609
aS'progress'
p7610
aa(lp7611
S'engaging'
p7612
aS'agricultural'
p7613
aS'supplier'
p7614
aS'water'
p7615
aS'ingredient'
p7616
aS'common'
p7617
aS'product'
p7618
aS'significant'
p7619
aS'water'
p7620
aS'related'
p7621
aS'product'
p7622
aS'used'
p7623
aS'supplier'
p7624
aS'grow'
p7625
aS'barley'
p7626
aS'raw'
p7627
aS'material'
p7628
aS'brewing'
p7629
aS'process'
p7630
aa(lp7631
S'similar'
p7632
aS'food'
p7633
aS'beverage'
p7634
aS'company'
p7635
aS'agricultural'
p7636
aS'input'
p7637
aa(lp7638
S'agriculture'
p7639
aS'account'
p7640
aS'roughly'
p7641
aS'percent'
p7642
aS'total'
p7643
aS'water'
p7644
aS'used'
p7645
aS'production'
p7646
aS'ab'
p7647
aS'beer'
p7648
aa(lp7649
S'end'
p7650
aS'conducted'
p7651
aS'water'
p7652
aS'risk'
p7653
aS'assessment'
p7654
aS'global'
p7655
aS'barley'
p7656
aS'supply'
p7657
aS'chain'
p7658
aS'provide'
p7659
aS'area'
p7660
aS'focus'
p7661
aa(lp7662
S'aim'
p7663
aS'develop'
p7664
aS'long'
p7665
aS'term'
p7666
aS'water'
p7667
aS'strategy'
p7668
aS'supply'
p7669
aS'chain'
p7670
aa(lp7671
S'percentage'
p7672
aS'total'
p7673
aS'water'
p7674
aS'used'
p7675
aS'agriculture'
p7676
aS'production'
p7677
aS'ab'
p7678
aS'beer'
p7679
aS'team'
p7680
aS'barley'
p7681
aS'expert'
p7682
aS'provides'
p7683
aS'technical'
p7684
aS'assistance'
p7685
aS'grower'
p7686
aS'barley'
p7687
aS'grower'
p7688
aS'program'
p7689
aa(lp7690
S'help'
p7691
aS'farmer'
p7692
aS'achieve'
p7693
aS'highest'
p7694
aS'quality'
p7695
aS'barley'
p7696
aS'best'
p7697
aS'yield'
p7698
aS'lowest'
p7699
aS'cost'
p7700
aa(lp7701
S'use'
p7702
aS'natural'
p7703
aS'resource'
p7704
aS'important'
p7705
aS'component'
p7706
aS'providing'
p7707
aS'environmental'
p7708
aS'benefit'
p7709
aS'economic'
p7710
aS'social'
p7711
aS'advancement'
p7712
aa(lp7713
S'helping'
p7714
aS'grower'
p7715
aS'achieve'
p7716
aS'greater'
p7717
aS'yield'
p7718
aS'water'
p7719
aS'fertilizer'
p7720
aS'pesticide'
p7721
aS'reduces'
p7722
aS'supply'
p7723
aS'chain'
p7724
aS'risk'
p7725
aS'creates'
p7726
aS'economic'
p7727
aS'opportunity'
p7728
aS'independent'
p7729
aS'local'
p7730
aS'farmer'
p7731
aS'help'
p7732
aS'reduce'
p7733
aS'overall'
p7734
aS'environmental'
p7735
aS'impact'
p7736
aS'product'
p7737
aa(lp7738
S'researching'
p7739
aS'winter'
p7740
aS'barley'
p7741
aS'variety'
p7742
aS'better'
p7743
aS'advantage'
p7744
aS'available'
p7745
aS'moisture'
p7746
aS'spring'
p7747
aS'variety'
p7748
aS'resistant'
p7749
aS'enabling'
p7750
aS'harvest'
p7751
aS'using'
p7752
aS'chemical'
p7753
aS'water'
p7754
aS'fertilizer'
p7755
aa(lp7756
S'united'
p7757
aS'state'
p7758
aS'southern'
p7759
aS'introduced'
p7760
aS'specially'
p7761
aS'adapted'
p7762
aS'winter'
p7763
aS'barley'
p7764
aS'variety'
p7765
aS'require'
p7766
aS'percent'
p7767
aS'water'
p7768
aS'regular'
p7769
aS'variety'
p7770
aS'saving'
p7771
aS'billion'
p7772
aS'liter'
p7773
aS'water'
p7774
aS'growing'
p7775
aS'season'
p7776
aa(lp7777
S'barley'
p7778
aS'variety'
p7779
aS'program'
p7780
aS'partnership'
p7781
aS'yield'
p7782
aS'capacity'
p7783
aS'percent'
p7784
aS'higher'
p7785
aS'existing'
p7786
aS'variety'
p7787
aa(lp7788
S'barley'
p7789
aS'variety'
p7790
aS'resistant'
p7791
aS'reducing'
p7792
aS'need'
p7793
aS'pesticide'
p7794
aa(lp7795
S'engaging'
p7796
aS'stakeholder'
p7797
aS'technical'
p7798
aS'meeting'
p7799
aS'partnership'
p7800
aS'grower'
p7801
aS'agricultural'
p7802
aS'research'
p7803
aS'organization'
p7804
aS'government'
p7805
aS'agriculture'
p7806
aS'ministry'
p7807
aS'chemical'
p7808
aS'company'
p7809
aS'explore'
p7810
aS'opportunity'
p7811
aS'reduce'
p7812
aS'impact'
p7813
aa(lp7814
S'brazil'
p7815
aS'exploring'
p7816
aS'benefit'
p7817
aS'crop'
p7818
aS'barley'
p7819
aS'donating'
p7820
aS'tree'
p7821
aS'barley'
p7822
aS'grower'
p7823
aS'create'
p7824
aS'green'
p7825
aS'belt'
p7826
aS'field'
p7827
aS'help'
p7828
aS'protect'
p7829
aS'crop'
p7830
aS'wind'
p7831
aS'increase'
p7832
aS'biodiversity'
p7833
aS'help'
p7834
aa(lp7835
S'partnering'
p7836
aS'transportation'
p7837
aS'logistics'
p7838
aS'provider'
p7839
aS'ab'
p7840
aS'number'
p7841
aS'unique'
p7842
aS'initiative'
p7843
aS'designed'
p7844
aS'reduce'
p7845
aS'scope'
p7846
aS'greenhouse'
p7847
aS'gas'
p7848
aS'emission'
p7849
aS'associated'
p7850
aS'transportation'
p7851
aS'product'
p7852
aS'service'
p7853
aS'provided'
p7854
aS'party'
p7855
aS'company'
p7856
aa(lp7857
S'tracking'
p7858
aS'brazil'
p7859
aS'united'
p7860
aS'state'
p7861
aS'number'
p7862
aS'year'
p7863
aS'unique'
p7864
aS'initiative'
p7865
aS'western'
p7866
aS'europe'
p7867
aS'zone'
p7868
aS'sponsored'
p7869
aS'flemish'
p7870
aS'institute'
p7871
aS'logistics'
p7872
aa(lp7873
S'ab'
p7874
aS'earns'
p7875
aS'lean'
p7876
aS'green'
p7877
aS'certification'
p7878
aS'lean'
p7879
aS'green'
p7880
aS'government'
p7881
aS'funded'
p7882
aS'program'
p7883
aS'developed'
p7884
aS'dutch'
p7885
aS'company'
p7886
aS'launched'
p7887
aS'program'
p7888
aS'expanded'
p7889
aS'belgium'
p7890
aa(lp7891
S'program'
p7892
aS'designed'
p7893
aS'encourage'
p7894
aS'supply'
p7895
aS'chain'
p7896
aS'partner'
p7897
aS'logistics'
p7898
aS'service'
p7899
aS'provider'
p7900
aS'work'
p7901
aS'reduce'
p7902
ag3214
aS'emission'
p7903
aa(lp7904
S'ab'
p7905
aS'group'
p7906
aS'dutch'
p7907
aS'participant'
p7908
aS'large'
p7909
aS'customer'
p7910
aS'international'
p7911
aS'chain'
p7912
aS'warehouse'
p7913
aS'club'
p7914
aS'store'
p7915
aa(lp7916
S'participating'
p7917
aS'lean'
p7918
aS'green'
p7919
aS'program'
p7920
aS'requires'
p7921
aS'percent'
p7922
aS'reduction'
p7923
ag3214
aS'emission'
p7924
aS'year'
p7925
aS'detailed'
p7926
aS'plan'
p7927
aS'action'
p7928
aS'achieving'
p7929
aS'target'
p7930
aa(lp7931
S'dream'
p7932
aS'best'
p7933
aS'beer'
p7934
aS'company'
p7935
aS'better'
p7936
aS'world'
p7937
aS'ab'
p7938
aS'chose'
p7939
aS'stretch'
p7940
aS'goal'
p7941
aS'commit'
p7942
aS'percent'
p7943
aS'reduction'
p7944
aa(lp7945
S'ab'
p7946
aS'pleased'
p7947
aS'company'
p7948
aS'belgium'
p7949
aS'earn'
p7950
aS'lean'
p7951
aS'green'
p7952
aS'certification'
p7953
aS'presented'
p7954
aS'program'
p7955
aS'participant'
p7956
aS'flemish'
p7957
aS'president'
p7958
aa(lp7959
S'ab'
p7960
aS'apply'
p7961
aS'technique'
p7962
aS'deployed'
p7963
aS'learned'
p7964
aS'lean'
p7965
aS'green'
p7966
aS'participation'
p7967
aS'part'
p7968
aS'world'
p7969
aa(lp7970
S'helped'
p7971
aS'reduce'
p7972
aS'overall'
p7973
ag3214
aS'footprint'
p7974
aS'cut'
p7975
aS'logistics'
p7976
aS'cost'
p7977
aS'significantly'
p7978
aa(lp7979
S'providing'
p7980
aS'refrigeration'
p7981
aS'option'
p7982
aS'making'
p7983
aS'significant'
p7984
aS'progress'
p7985
aS'reducing'
p7986
aS'environmental'
p7987
aS'impact'
p7988
aS'refrigeration'
p7989
aS'unit'
p7990
aS'provide'
p7991
aS'retailer'
p7992
aS'legal'
p7993
aS'switching'
p7994
aS'lower'
p7995
aS'greenhouse'
p7996
aS'gas'
p7997
aS'potential'
p7998
aS'using'
p7999
aS'led'
p8000
aS'lighting'
p8001
aS'energy'
p8002
aS'management'
p8003
aS'device'
p8004
aS'lower'
p8005
aS'energy'
p8006
aS'use'
p8007
aa(lp8008
S'western'
p8009
aS'europe'
p8010
aS'zone'
p8011
aS'leading'
p8012
aS'effort'
p8013
aS'unit'
p8014
aS'place'
p8015
aa(lp8016
S'zone'
p8017
aS'exploring'
p8018
aS'similar'
p8019
aS'opportunity'
p8020
aS'technology'
p8021
aS'available'
p8022
aS'meet'
p8023
aS'specific'
p8024
aS'need'
p8025
aS'market'
p8026
aa(lp8027
S'managing'
p8028
aS'biodiversity'
p8029
aS'environmental'
p8030
aS'effort'
p8031
aS'especially'
p8032
aS'work'
p8033
aS'protect'
p8034
aS'improve'
p8035
aS'watershed'
p8036
aS'positive'
p8037
aS'impact'
p8038
aS'biodiversity'
p8039
aa(lp8040
S'facility'
p8041
aS'maintain'
p8042
aS'portion'
p8043
aS'property'
p8044
aS'benefit'
p8045
aS'native'
p8046
aS'plant'
p8047
aS'animal'
p8048
aS'improve'
p8049
aS'local'
p8050
aS'environment'
p8051
aS'promote'
p8052
aS'biodiversity'
p8053
aS'site'
p8054
aS'education'
p8055
aS'awareness'
p8056
aS'research'
p8057
aS'conservation'
p8058
aS'project'
p8059
aa(lp8060
S'operation'
p8061
aS'brazil'
p8062
aS'number'
p8063
aS'example'
p8064
aS'guarulhos'
p8065
aS'brewery'
p8066
aS'guarulhos'
p8067
aS'brewery'
p8068
aS'entered'
p8069
aS'partnership'
p8070
aS'environmental'
p8071
aS'guarulhos'
p8072
ag3214
aS'study'
p8073
aS'puma'
p8074
aa(lp8075
S'puma'
p8076
aS'ministry'
p8077
aS'environment'
p8078
aS'water'
p8079
aS'resource'
p8080
aS'legal'
p8081
aa(lp8082
S'goal'
p8083
aS'project'
p8084
aS'habitat'
p8085
aS'use'
p8086
aS'life'
p8087
aS'span'
p8088
aS'puma'
p8089
aS'area'
p8090
aS'identify'
p8091
aS'cross'
p8092
aa(lp8093
S'santa'
p8094
aS'helena'
p8095
aS'farm'
p8096
aS'city'
p8097
aS'state'
p8098
aS'acre'
p8099
aS'santa'
p8100
aS'helena'
p8101
aS'farm'
p8102
aS'feature'
p8103
aS'largest'
p8104
aS'genetic'
p8105
aS'fruit'
p8106
aS'world'
p8107
aS'plant'
p8108
aa(lp8109
S'half'
p8110
aS'area'
p8111
aS'used'
p8112
aS'study'
p8113
aS'improvement'
p8114
aS'fruit'
p8115
aS'half'
p8116
aS'set'
p8117
aS'environmental'
p8118
aa(lp8119
S'brahma'
p8120
aS'tree'
p8121
aS'planting'
p8122
aS'partnership'
p8123
aS'brahma'
p8124
aS'soft'
p8125
aS'drink'
p8126
aS'unit'
p8127
aS'developed'
p8128
aS'project'
p8129
aS'p'
p8130
ag8130
aS'standing'
p8131
aS'forest'
p8132
aa(lp8133
S'connection'
p8134
aS'project'
p8135
aS'brahma'
p8136
aS'plant'
p8137
aS'tree'
p8138
aS'goal'
p8139
aS'scored'
p8140
aS'brasileir'
p8141
ag5558
aS'brazilian'
p8142
aS'make'
p8143
aS'environmental'
p8144
aS'investment'
p8145
aa(lp8146
S'brasileir'
p8147
ag5558
aS'goal'
p8148
aS'scored'
p8149
aS'brahma'
p8150
aS'commit'
p8151
aS'planting'
p8152
aS'tree'
p8153
aa(lp8154
S'additionally'
p8155
aS'partnership'
p8156
aS'institute'
p8157
aS'ecological'
p8158
aS'research'
p8159
aS'brahma'
p8160
aS'invest'
p8161
aS'million'
p8162
aS'usd'
p8163
aS'tree'
p8164
aS'planting'
p8165
aS'conservation'
p8166
aS'education'
p8167
aS'job'
p8168
aS'leading'
p8169
aS'world'
p8170
aS'cup'
p8171
aS'compliance'
p8172
aS'operation'
p8173
aS'regulator'
p8174
aS'necessary'
p8175
aS'change'
p8176
aS'management'
p8177
aS'avoid'
p8178
aa(lp8179
S'paid'
p8180
aS'usd'
p8181
aS'environmental'
p8182
aS'fine'
p8183
aa(lp8184
S'strengthening'
p8185
aS'improving'
p8186
aS'community'
p8187
aS'fundamental'
p8188
aS'company'
p8189
aa(lp8190
S'recognizing'
p8191
aS'ab'
p8192
aS'success'
p8193
aS'directly'
p8194
aS'tied'
p8195
aS'success'
p8196
aS'community'
p8197
aS'know'
p8198
aS'place'
p8199
aS'live'
p8200
aS'work'
p8201
aS'key'
p8202
aS'best'
p8203
aS'beer'
p8204
aS'company'
p8205
aS'better'
p8206
aS'world'
p8207
aa(lp8208
S'charitable'
p8209
aS'foundation'
p8210
aS'volunteer'
p8211
aS'program'
p8212
aS'unique'
p8213
aS'community'
p8214
aS'partnership'
p8215
aS'effort'
p8216
aS'provide'
p8217
aS'support'
p8218
aS'individual'
p8219
aS'family'
p8220
aS'world'
p8221
aa(lp8222
S'mobilize'
p8223
aS'resource'
p8224
aS'support'
p8225
aS'community'
p8226
aS'disaster'
p8227
aS'emergency'
p8228
aS'situation'
p8229
aS'providing'
p8230
aS'assistance'
p8231
aS'victim'
p8232
aS'relief'
p8233
aS'worker'
p8234
aa(lp8235
S'addition'
p8236
aS'worldwide'
p8237
aS'positive'
p8238
aS'impact'
p8239
aS'job'
p8240
aS'create'
p8241
aS'wage'
p8242
ag4410
aS'pay'
p8243
aa(lp8244
S'economic'
p8245
aS'contribution'
p8246
ag3447
aS'usd'
p8247
aS'wage'
p8248
aS'paid'
p8249
aS'employee'
p8250
ag3447
aS'usd'
p8251
aS'capital'
p8252
aS'facility'
p8253
aS'distribution'
p8254
aS'network'
p8255
aS'system'
p8256
aS'world'
p8257
aS'investment'
p8258
aS'generate'
p8259
aS'job'
p8260
aS'local'
p8261
aS'economic'
p8262
aS'growth'
p8263
ag3447
aS'usd'
p8264
aS'income'
p8265
ag4410
aS'paid'
p8266
aS'volunteerism'
p8267
aS'support'
p8268
aS'key'
p8269
aS'component'
p8270
aS'better'
p8271
aS'world'
p8272
aS'vision'
p8273
aS'committed'
p8274
aS'helping'
p8275
aS'employee'
p8276
aS'make'
p8277
aS'personal'
p8278
aS'connection'
p8279
aS'people'
p8280
aS'providing'
p8281
aS'formal'
p8282
aS'volunteerism'
p8283
aS'structure'
p8284
aa(lp8285
S'cervecer'
p8286
aS'y'
p8287
aS'malter'
p8288
aS'quilmes'
p8289
aS'asociaci'
p8290
aS'n'
p8291
aS'conciencia'
p8292
aS'promotes'
p8293
aS'action'
p8294
aS'focused'
p8295
aS'community'
p8296
aS'production'
p8297
aS'plant'
p8298
aa(lp8299
S'participant'
p8300
aS'donate'
p8301
aS'time'
p8302
aS'activity'
p8303
aS'volunteer'
p8304
aS'work'
p8305
aS'day'
p8306
aa(lp8307
S'goal'
p8308
aS'foster'
p8309
aS'social'
p8310
aS'work'
p8311
aS'link'
p8312
aS'community'
p8313
aS'achieve'
p8314
aS'better'
p8315
aS'involvement'
p8316
aS'employee'
p8317
aS'community'
p8318
aS'need'
p8319
aS'manager'
p8320
ag8291
aS'social'
p8321
aS'asociaci'
p8322
ag8291
aS'conciencia'
p8323
aS'ngo'
p8324
aS'china'
p8325
aS'hope'
p8326
aS'school'
p8327
aS'addition'
p8328
aS'suqian'
p8329
aS'hope'
p8330
aS'school'
p8331
aS'jiangsu'
p8332
aS'province'
p8333
aS'school'
p8334
aS'supported'
p8335
aS'china'
p8336
aa(lp8337
S'addition'
p8338
aS'supply'
p8339
aS'physical'
p8340
aS'education'
p8341
aS'equipment'
p8342
aS'provided'
p8343
aS'office'
p8344
aS'equipment'
p8345
aS'worked'
p8346
aS'uniform'
p8347
aS'company'
p8348
aS'design'
p8349
aS'provide'
p8350
aS'new'
p8351
aS'school'
p8352
aS'uniform'
p8353
aa(lp8354
S'people'
p8355
aS'help'
p8356
aS'program'
p8357
aS'cervecer'
p8358
ag8287
aS'malter'
p8359
aS'quilmes'
p8360
aS'colleague'
p8361
aS'argentina'
p8362
aS'created'
p8363
aS'ambitious'
p8364
aS'action'
p8365
aS'plan'
p8366
aS'increase'
p8367
aS'employee'
p8368
aS'volunteerism'
p8369
aS'local'
p8370
aS'community'
p8371
aS'offering'
p8372
aS'employee'
p8373
aS'diverse'
p8374
aS'range'
p8375
aS'project'
p8376
aS'support'
p8377
aa(lp8378
S'germany'
p8379
aS'day'
p8380
aS'caring'
p8381
aS'ab'
p8382
aS'employee'
p8383
aS'germany'
p8384
aS'celebrated'
p8385
aS'commitment'
p8386
aS'community'
p8387
aS'holding'
p8388
aS'day'
p8389
aS'caring'
p8390
aS'partnered'
p8391
aS'community'
p8392
aS'agency'
p8393
aS'create'
p8394
aS'volunteer'
p8395
aS'project'
p8396
aS'specifically'
p8397
aS'ab'
p8398
aS'employee'
p8399
aa(lp8400
S'budweiser'
p8401
aS'grassroots'
p8402
aS'football'
p8403
aS'budweiser'
p8404
aS'football'
p8405
aS'association'
p8406
aS'fa'
p8407
aS'cup'
p8408
aS'budweiser'
p8409
aS'invest'
p8410
aS'million'
p8411
aS'million'
p8412
aS'usd'
p8413
aS'directly'
p8414
aS'grassroots'
p8415
aS'football'
p8416
aS'united'
p8417
aS'kingdom'
p8418
aS'season'
p8419
aa(lp8420
S'long'
p8421
aS'standing'
p8422
aS'football'
p8423
aS'world'
p8424
aS'including'
p8425
aS'world'
p8426
aS'cup'
p8427
aS'fa'
p8428
aS'cup'
p8429
aS'understand'
p8430
aS'role'
p8431
aS'football'
p8432
aS'play'
p8433
aS'bringing'
p8434
aS'community'
p8435
aS'world'
p8436
aS'importance'
p8437
aS'grassroots'
p8438
aS'football'
p8439
aS'developing'
p8440
aS'future'
p8441
aS'football'
p8442
aa(lp8443
S'budweiser'
p8444
aS'club'
p8445
aS'future'
p8446
aS'initiative'
p8447
aS'grant'
p8448
aS'season'
p8449
aS'additional'
p8450
aS'grant'
p8451
aS'season'
p8452
aa(lp8453
S'season'
p8454
aS'club'
p8455
aS'chosen'
p8456
aS'additional'
p8457
aS'usd'
p8458
aS'grant'
p8459
aS'fan'
p8460
aS'fa'
p8461
aS'cup'
p8462
aS'budweiser'
p8463
aS'facebook'
p8464
aS'page'
p8465
aa(lp8466
S'disaster'
p8467
aS'relief'
p8468
aS'included'
p8469
aS'support'
p8470
aS'superstorm'
p8471
aS'sandy'
p8472
aS'deployed'
p8473
aS'million'
p8474
aS'can'
p8475
aS'drinking'
p8476
aS'water'
p8477
aS'affected'
p8478
aa(lp8479
S'foundation'
p8480
aS'announced'
p8481
aS'usd'
p8482
aS'donation'
p8483
aS'american'
p8484
aS'cross'
p8485
aS'assist'
p8486
aS'ground'
p8487
aS'support'
p8488
aS'disaster'
p8489
aS'relief'
p8490
aS'worker'
p8491
aS'victim'
p8492
aa(lp8493
S'plant'
p8494
aS'take'
p8495
aS'lid'
p8496
aS'provides'
p8497
aS'pro'
p8498
aS'africa'
p8499
aa(lp8500
S'organization'
p8501
aS'work'
p8502
aS'local'
p8503
aS'community'
p8504
aS'group'
p8505
aS'volunteer'
p8506
aS'tab'
p8507
aS'lid'
p8508
aa(lp8509
S'pro'
p8510
aS'africa'
p8511
aS'transport'
p8512
aS'tab'
p8513
aa(lp8514
S'woman'
p8515
aS'center'
p8516
aS'use'
p8517
aS'tab'
p8518
aS'create'
p8519
aS'environmentally'
p8520
aS'friendly'
p8521
aS'brought'
p8522
aS'united'
p8523
aS'state'
p8524
aS'sold'
p8525
aa(lp8526
S'profit'
p8527
aS'purse'
p8528
aS'given'
p8529
aS'woman'
p8530
aS'providing'
p8531
aS'way'
p8532
aS'help'
p8533
aS'support'
p8534
aa(lp8535
S'plant'
p8536
aS'working'
p8537
aS'organization'
p8538
aS'donated'
p8539
aS'approximately'
p8540
aS'lid'
p8541
aS'tab'
p8542
aa(lp8543
S'purse'
p8544
aS'available'
p8545
aS'online'
p8546
aS'purchase'
p8547
aa(lp8548
S'charitable'
p8549
aS'foundation'
p8550
aS'charitable'
p8551
aS'foundation'
p8552
aS'associated'
p8553
aS'directly'
p8554
aS'ab'
p8555
aS'reach'
p8556
aS'employee'
p8557
aS'group'
p8558
aS'need'
p8559
aa(lp8560
S'contribute'
p8561
aS'community'
p8562
aS'organization'
p8563
aS'touch'
p8564
aS'countless'
p8565
aS'individual'
p8566
aS'life'
p8567
aS'focus'
p8568
aS'supporting'
p8569
aS'education'
p8570
aS'environment'
p8571
aS'economic'
p8572
aS'development'
p8573
aS'disaster'
p8574
aa(lp8575
S'baillet'
p8576
aS'latour'
p8577
aS'fund'
p8578
aS'independent'
p8579
aS'association'
p8580
aS'belgium'
p8581
aS'created'
p8582
aS'baillet'
p8583
aS'latour'
p8584
aS'donated'
p8585
aS'nearly'
p8586
aS'million'
p8587
aS'eur'
p8588
aS'million'
p8589
aS'usd'
p8590
aS'fund'
p8591
aS'award'
p8592
aS'study'
p8593
aS'grant'
p8594
aS'gift'
p8595
aS'encourage'
p8596
aS'accomplishment'
p8597
aS'field'
p8598
aS'education'
p8599
aS'art'
p8600
aa(lp8601
S'fund'
p8602
aS'supported'
p8603
aS'activity'
p8604
aS'individual'
p8605
aS'advance'
p8606
aS'spirit'
p8607
aS'game'
p8608
aa(lp8609
S'verhelst'
p8610
aS'foundation'
p8611
aS'belgium'
p8612
aS'provided'
p8613
aS'million'
p8614
aS'eur'
p8615
aS'million'
p8616
aS'usd'
p8617
aS'help'
p8618
aS'ab'
p8619
aS'employee'
p8620
aS'western'
p8621
aS'europe'
p8622
aS'health'
p8623
aS'operate'
p8624
aS'counseling'
p8625
aS'service'
p8626
aS'provide'
p8627
aS'scholarship'
p8628
aS'employee'
p8629
ag1162
aa(lp8630
S'verhelst'
p8631
aS'foundation'
p8632
aS'independent'
p8633
aS'organization'
p8634
aS'created'
p8635
aS'support'
p8636
aS'company'
p8637
aS'employee'
p8638
aa(lp8639
S'foundation'
p8640
aS'provides'
p8641
aS'support'
p8642
aS'brazil'
p8643
aS'employee'
p8644
aS'member'
p8645
aS'community'
p8646
aa(lp8647
S'foundation'
p8648
aS'million'
p8649
aS'brazilian'
p8650
aS'real'
p8651
aS'million'
p8652
aS'usd'
p8653
aS'benefited'
p8654
aS'people'
p8655
aS'country'
p8656
aa(lp8657
S'investment'
p8658
aS'includes'
p8659
aS'funding'
p8660
aS'dental'
p8661
aS'plan'
p8662
aS'scholarship'
p8663
aS'school'
p8664
aS'supply'
p8665
aS'distribution'
p8666
aS'food'
p8667
aa(lp8668
S'great'
p8669
aS'people'
p8670
aS'foundation'
p8671
aS'business'
p8672
aS'pillar'
p8673
aS'corporate'
p8674
aS'citizenship'
p8675
aa(lp8676
S'recognizing'
p8677
aS'strive'
p8678
aS'attract'
p8679
aS'retain'
p8680
aS'best'
p8681
aS'talent'
p8682
aS'available'
p8683
aa(lp8684
S'ownership'
p8685
aS'performance'
p8686
aS'better'
p8687
aS'world'
p8688
aS'vision'
p8689
aS'ownership'
p8690
aS'culture'
p8691
aS'based'
p8692
aS'principle'
p8693
aS'people'
p8694
aS'responsible'
p8695
aS'accountable'
p8696
aS'result'
p8697
aa(lp8698
S'right'
p8699
aS'people'
p8700
aS'right'
p8701
aS'role'
p8702
aS'right'
p8703
aS'time'
p8704
aS'improve'
p8705
aS'productivity'
p8706
aS'continue'
p8707
aS'invest'
p8708
aS'business'
p8709
aS'turn'
p8710
aS'social'
p8711
aS'responsibility'
p8712
aS'initiative'
p8713
aa(lp8714
S'support'
p8715
aS'culture'
p8716
aS'performance'
p8717
aS'target'
p8718
aS'compensation'
p8719
aS'model'
p8720
aS'based'
p8721
aS'accountability'
p8722
aa(lp8723
S'employee'
p8724
aS'opportunity'
p8725
aS'earn'
p8726
aS'significant'
p8727
aS'variable'
p8728
aS'compensation'
p8729
aS'addition'
p8730
aS'compensation'
p8731
aS'achieve'
p8732
aS'clearly'
p8733
aS'defined'
p8734
aS'stretch'
p8735
aS'target'
p8736
aa(lp8737
S'approach'
p8738
aS'people'
p8739
aS'challenge'
p8740
aS'based'
p8741
aS'environment'
p8742
aa(lp8743
S'believe'
p8744
aS'people'
p8745
aS'encouraged'
p8746
aS'best'
p8747
aS'work'
p8748
aS'person'
p8749
aS'organization'
p8750
aa(lp8751
S'career'
p8752
aS'advancement'
p8753
aS'engagement'
p8754
aS'believe'
p8755
aS'clearly'
p8756
aS'defined'
p8757
aS'performance'
p8758
aS'goal'
p8759
aS'know'
p8760
aS'effective'
p8761
aS'performance'
p8762
aS'measurement'
p8763
aS'tracking'
p8764
aS'critical'
p8765
aS'driving'
p8766
aS'result'
p8767
aS'company'
p8768
aa(lp8769
S'important'
p8770
aS'tool'
p8771
aS'organization'
p8772
aS'people'
p8773
aS'review'
p8774
aS'opr'
p8775
aS'supported'
p8776
aS'data'
p8777
aS'skill'
p8778
aS'achievement'
p8779
aS'manager'
p8780
aS'company'
p8781
aa(lp8782
S'addition'
p8783
aS'result'
p8784
aS'performance'
p8785
aS'evaluation'
p8786
aS'opr'
p8787
aS'allows'
p8788
aS'identify'
p8789
aS'employee'
p8790
aS'skill'
p8791
aS'necessary'
p8792
aS'various'
p8793
aS'job'
p8794
aS'including'
p8795
aS'key'
p8796
aS'skill'
p8797
aS'educational'
p8798
aS'background'
p8799
aS'language'
p8800
aa(lp8801
S'capability'
p8802
aS'serf'
p8803
aS'company'
p8804
aS'need'
p8805
aS'clearly'
p8806
aS'defined'
p8807
aS'career'
p8808
aS'opportunity'
p8809
aS'people'
p8810
aS'enabling'
p8811
aS'promote'
p8812
aS'people'
p8813
aS'challenging'
p8814
aS'role'
p8815
aS'responsibility'
p8816
aa(lp8817
S'employee'
p8818
aS'receive'
p8819
aS'regular'
p8820
aS'review'
p8821
aS'feedback'
p8822
aS'performance'
p8823
aa(lp8824
S'approximately'
p8825
aS'percent'
p8826
aS'total'
p8827
aS'employee'
p8828
aS'population'
p8829
aS'formal'
p8830
aS'competency'
p8831
aS'based'
p8832
aS'leadership'
p8833
aS'level'
p8834
aa(lp8835
S'commitment'
p8836
aS'engage'
p8837
aS'employee'
p8838
aS'company'
p8839
aS'goal'
p8840
aS'conduct'
p8841
aS'annual'
p8842
aS'cycle'
p8843
aS'team'
p8844
aS'meeting'
p8845
aa(lp8846
S'help'
p8847
aS'ensure'
p8848
aS'team'
p8849
aS'goal'
p8850
aS'opportunity'
p8851
aS'gather'
p8852
aS'employee'
p8853
aS'feedback'
p8854
aS'way'
p8855
aS'improve'
p8856
aa(lp8857
S'university'
p8858
aS'abiu'
p8859
aS'employee'
p8860
aS'zone'
p8861
aS'participated'
p8862
aS'combined'
p8863
aS'total'
p8864
aS'million'
p8865
aS'hour'
p8866
aS'training'
p8867
aS'average'
p8868
aS'hour'
p8869
aS'employee'
p8870
aa(lp8871
S'training'
p8872
aS'development'
p8873
aS'program'
p8874
aS'designed'
p8875
aS'provide'
p8876
aS'strategic'
p8877
aS'direction'
p8878
aS'structure'
p8879
aS'consistency'
p8880
aS'company'
p8881
aS'university'
p8882
aS'abiu'
p8883
aa(lp8884
S'abiu'
p8885
aS'built'
p8886
aS'key'
p8887
aS'area'
p8888
aS'learning'
p8889
aS'leadership'
p8890
aS'culture'
p8891
aS'employee'
p8892
aS'pursue'
p8893
aS'personal'
p8894
aS'professional'
p8895
aS'growth'
p8896
aa(lp8897
S'program'
p8898
aS'serve'
p8899
aS'cultivate'
p8900
aS'strong'
p8901
aS'root'
p8902
aS'leadership'
p8903
aS'encourage'
p8904
aS'advance'
p8905
aS'career'
p8906
aa(lp8907
S'initiative'
p8908
aS'include'
p8909
aS'executive'
p8910
aS'board'
p8911
aS'management'
p8912
aS'education'
p8913
aS'senior'
p8914
aS'leadership'
p8915
aS'convention'
p8916
aS'leadership'
p8917
aS'performance'
p8918
aS'change'
p8919
aS'business'
p8920
aS'leading'
p8921
aS'managing'
p8922
aS'abi'
p8923
aa(lp8924
S'method'
p8925
aS'provide'
p8926
aS'people'
p8927
aS'fundamental'
p8928
aS'tool'
p8929
aS'need'
p8930
aS'manage'
p8931
aS'support'
p8932
aS'team'
p8933
aS'problem'
p8934
aS'effectively'
p8935
aa(lp8936
S'program'
p8937
aS'include'
p8938
aS'white'
p8939
aS'belt'
p8940
aS'green'
p8941
aS'belt'
p8942
aS'black'
p8943
aS'belt'
p8944
aS'master'
p8945
aS'black'
p8946
aS'belt'
p8947
aS'lean'
p8948
aS'foundation'
p8949
aS'lean'
p8950
aS'master'
p8951
aS'train'
p8952
aS'trainer'
p8953
aS'program'
p8954
aa(lp8955
S'currently'
p8956
aS'master'
p8957
aS'black'
p8958
aS'belt'
p8959
aS'master'
p8960
aS'trainer'
p8961
aS'zone'
p8962
aa(lp8963
S'selected'
p8964
aS'trainee'
p8965
aS'program'
p8966
aS'worldwide'
p8967
aa(lp8968
S'training'
p8969
aS'placed'
p8970
aS'time'
p8971
aS'position'
p8972
aS'global'
p8973
aS'organization'
p8974
aa(lp8975
S'brazil'
p8976
aS'trainee'
p8977
aS'world'
p8978
aS'come'
p8979
aS'program'
p8980
aS'senior'
p8981
aS'ab'
p8982
aS'leader'
p8983
aa(lp8984
S'unique'
p8985
aS'background'
p8986
aS'perspective'
p8987
aS'experience'
p8988
aS'employee'
p8989
aS'important'
p8990
aS'key'
p8991
aS'success'
p8992
aa(lp8993
S'commitment'
p8994
aS'equal'
p8995
aS'employment'
p8996
aS'opportunity'
p8997
aS'diversity'
p8998
aS'defining'
p8999
aS'value'
p9000
aS'help'
p9001
aS'make'
p9002
aS'company'
p9003
aS'great'
p9004
aS'place'
p9005
aS'work'
p9006
aS'relationship'
p9007
aS'customer'
p9008
aS'community'
p9009
aS'serve'
p9010
aa(lp9011
S'people'
p9012
aS'respect'
p9013
aS'difference'
p9014
aS'reach'
p9015
aS'potential'
p9016
aa(lp9017
S'leading'
p9018
aS'international'
p9019
aS'business'
p9020
aS'committed'
p9021
aS'employment'
p9022
aS'career'
p9023
aS'development'
p9024
aS'opportunity'
p9025
aS'available'
p9026
aS'race'
p9027
aS'color'
p9028
aa(lp9029
S'commitment'
p9030
aS'employment'
p9031
aS'regulation'
p9032
aS'code'
p9033
aS'business'
p9034
aS'conduct'
p9035
aS'commitment'
p9036
aS'united'
p9037
aS'nation'
p9038
aS'global'
p9039
aS'compact'
p9040
aa(lp9041
S'end'
p9042
aS'employed'
p9043
aS'approximately'
p9044
aS'time'
p9045
aS'seasonal'
p9046
aS'temporary'
p9047
aS'employee'
p9048
aS'worldwide'
p9049
aa(lp9050
S'time'
p9051
aS'employee'
p9052
aS'approximately'
p9053
aS'percent'
p9054
aS'female'
p9055
aS'percent'
p9056
aS'male'
p9057
aa(lp9058
S'average'
p9059
aS'employee'
p9060
aS'age'
p9061
aS'approximately'
p9062
aS'year'
p9063
aS'old'
p9064
aa(lp9065
S'average'
p9066
aS'service'
p9067
aS'approximately'
p9068
aS'year'
p9069
aa(lp9070
S'percent'
p9071
aS'employee'
p9072
aS'worked'
p9073
aS'blue'
p9074
aS'collar'
p9075
aS'job'
p9076
aS'percent'
p9077
aS'worked'
p9078
aS'white'
p9079
aS'collar'
p9080
aS'job'
p9081
aa(lp9082
S'commitment'
p9083
aS'diversity'
p9084
aS'support'
p9085
aS'ab'
p9086
aS'business'
p9087
aS'objective'
p9088
aS'united'
p9089
aS'state'
p9090
aS'employee'
p9091
aS'resource'
p9092
aS'group'
p9093
aS'provide'
p9094
aS'education'
p9095
aS'awareness'
p9096
aS'professional'
p9097
aS'growth'
p9098
aS'development'
p9099
aS'opportunity'
p9100
aS'diverse'
p9101
aS'family'
p9102
aS'employee'
p9103
aa(lp9104
S'world'
p9105
aS'safety'
p9106
aS'day'
p9107
aS'safety'
p9108
aS'year'
p9109
aS'focus'
p9110
aS'extra'
p9111
aS'time'
p9112
aS'safety'
p9113
aS'supply'
p9114
aS'safety'
p9115
aS'day'
p9116
aS'international'
p9117
aS'labor'
p9118
aS'world'
p9119
aS'safety'
p9120
aS'day'
p9121
aS'focused'
p9122
aS'celebration'
p9123
aS'internal'
p9124
aS'transport'
p9125
aS'commuting'
p9126
aS'safety'
p9127
aS'drive'
p9128
aS'safely'
p9129
aS'home'
p9130
aS'work'
p9131
aS'emphasis'
p9132
aS'commuting'
p9133
aS'safety'
p9134
aS'year'
p9135
aS'regular'
p9136
aS'safety'
p9137
aS'excellence'
p9138
aS'program'
p9139
aS'special'
p9140
aS'driving'
p9141
aS'course'
p9142
aS'offered'
p9143
aS'employee'
p9144
aS'zone'
p9145
aa(lp9146
S'safety'
p9147
aS'performance'
p9148
aS'fatality'
p9149
aS'supply'
p9150
aS'regret'
p9151
aS'report'
p9152
aS'fatal'
p9153
aS'accident'
p9154
aS'contractor'
p9155
aS'working'
p9156
aS'supply'
p9157
aS'area'
p9158
aS'including'
p9159
aS'fatality'
p9160
aS'truck'
p9161
aS'fatality'
p9162
aS'occurred'
p9163
aS'contractor'
p9164
aS'making'
p9165
aa(lp9166
S'second'
p9167
aS'tier'
p9168
aS'sale'
p9169
aS'regret'
p9170
aS'report'
p9171
aS'fatal'
p9172
aS'accident'
p9173
aS'second'
p9174
aS'tier'
p9175
aS'sale'
p9176
aS'area'
p9177
aa(lp9178
S'includes'
p9179
aS'employee'
p9180
aS'contractor'
p9181
aa(lp9182
S'fatality'
p9183
aS'vehicle'
p9184
aS'related'
p9185
aa(lp9186
S'employee'
p9187
aS'fatality'
p9188
aS'occurred'
p9189
aS'fall'
p9190
aa(lp9191
S'guided'
p9192
aS'daily'
p9193
aS'safety'
p9194
aS'pillar'
p9195
aS'second'
p9196
aS'tier'
p9197
aS'sale'
p9198
aS'operation'
p9199
aS'taken'
p9200
aS'additional'
p9201
aS'step'
p9202
aS'improve'
p9203
aS'maintain'
p9204
aS'effective'
p9205
aS'safety'
p9206
aS'management'
p9207
aS'including'
p9208
aS'sharing'
p9209
aS'best'
p9210
aS'practice'
p9211
aS'contractor'
p9212
aS'help'
p9213
aS'prevent'
p9214
aS'avoid'
p9215
aS'event'
p9216
aa(lp9217
S'commuting'
p9218
aS'started'
p9219
aS'track'
p9220
aS'employee'
p9221
aS'injury'
p9222
aS'commuting'
p9223
aS'work'
p9224
aS'home'
p9225
aa(lp9226
S'fatality'
p9227
aS'reported'
p9228
aa(lp9229
S'reported'
p9230
aS'fatality'
p9231
aS'commuting'
p9232
aS'asia'
p9233
aS'pacific'
p9234
aS'latin'
p9235
aS'america'
p9236
aS'north'
p9237
aS'latin'
p9238
aS'america'
p9239
aS'south'
p9240
aa(lp9241
S'zone'
p9242
aS'provide'
p9243
aS'safe'
p9244
aS'driver'
p9245
aS'training'
p9246
aS'employee'
p9247
aS'require'
p9248
aS'drive'
p9249
aS'vehicle'
p9250
aS'daily'
p9251
aS'job'
p9252
aa(lp9253
S'believe'
p9254
aS'strong'
p9255
aS'effort'
p9256
aS'educate'
p9257
aS'employee'
p9258
aS'safe'
p9259
aS'driving'
p9260
aS'use'
p9261
aS'positive'
p9262
aS'impact'
p9263
aa(lp9264
S'lost'
p9265
aS'time'
p9266
aS'injury'
p9267
aS'rate'
p9268
aS'supply'
p9269
aS'thanks'
p9270
aS'vpo'
p9271
aS'safety'
p9272
aS'protocol'
p9273
aS'initiative'
p9274
aS'number'
p9275
aS'ltis'
p9276
aS'decreased'
p9277
aS'percent'
p9278
aS'percent'
p9279
aS'including'
p9280
aS'temporary'
p9281
aS'seasonal'
p9282
aS'worker'
p9283
aa(lp9284
S'target'
p9285
aS'percent'
p9286
aa(lp9287
S'taking'
p9288
aS'account'
p9289
aS'facility'
p9290
aS'owned'
p9291
aS'company'
p9292
aS'combination'
p9293
aS'number'
p9294
aS'ltis'
p9295
aS'decreased'
p9296
aS'percent'
p9297
aS'ab'
p9298
aS'facility'
p9299
aS'recorded'
p9300
aS'ltis'
p9301
aS'gone'
p9302
aS'year'
p9303
aS'longer'
p9304
aS'ltis'
p9305
aS'recorded'
p9306
aa(lp9307
S'contractor'
p9308
aS'ltis'
p9309
aS'facility'
p9310
aS'percent'
p9311
aS'decrease'
p9312
aS'percent'
p9313
aS'improvement'
p9314
aS'significantly'
p9315
aS'reduced'
p9316
aS'number'
p9317
aS'contractor'
p9318
aS'ltis'
p9319
aS'asia'
p9320
aS'pacific'
p9321
aS'latin'
p9322
aS'america'
p9323
aS'north'
p9324
aS'western'
p9325
aS'europe'
p9326
aS'zone'
p9327
aa(lp9328
S'second'
p9329
aS'tier'
p9330
aS'sale'
p9331
aS'thanks'
p9332
aS'effort'
p9333
aS'focus'
p9334
aS'employee'
p9335
aS'safety'
p9336
aS'facility'
p9337
aS'number'
p9338
aS'employee'
p9339
aS'ltis'
p9340
aS'globally'
p9341
aS'second'
p9342
aS'tier'
p9343
aS'sale'
p9344
aS'area'
p9345
aS'decreased'
p9346
aS'percent'
p9347
aS'including'
p9348
aS'temporary'
p9349
aS'seasonal'
p9350
aS'worker'
p9351
aa(lp9352
S'contractor'
p9353
aS'ltis'
p9354
aS'second'
p9355
aS'tier'
p9356
aS'sale'
p9357
aS'significantly'
p9358
aS'percent'
p9359
aS'commuting'
p9360
aS'recorded'
p9361
aS'commuting'
p9362
aS'ltis'
p9363
aa(lp9364
S'aware'
p9365
aS'actual'
p9366
aS'higher'
p9367
aS'started'
p9368
aS'tracking'
p9369
aS'commuting'
p9370
aS'global'
p9371
aS'level'
p9372
aS'time'
p9373
aS'zone'
p9374
aS'able'
p9375
aS'report'
p9376
aS'data'
p9377
aa(lp9378
S'reduced'
p9379
aS'total'
p9380
aS'recordable'
p9381
aS'injury'
p9382
aS'supply'
p9383
aS'journey'
p9384
aS'safety'
p9385
aS'excellence'
p9386
aS'focus'
p9387
aS'total'
p9388
aS'recordable'
p9389
aS'injury'
p9390
aS'sum'
p9391
aS'ltis'
p9392
aS'injury'
p9393
aS'mdi'
p9394
aS'medical'
p9395
aS'treatment'
p9396
aS'injury'
p9397
aS'mti'
p9398
aa(lp9399
S'recorded'
p9400
aS'recordable'
p9401
aS'injury'
p9402
aS'ltis'
p9403
aS'mdi'
p9404
aa(lp9405
S'second'
p9406
aS'tier'
p9407
aS'sale'
p9408
aS'started'
p9409
aS'mdi'
p9410
aS'mti'
p9411
aS'information'
p9412
aS'zone'
p9413
aa(lp9414
S'continue'
p9415
aS'practice'
p9416
aS'provide'
p9417
aS'reliable'
p9418
aS'recordable'
p9419
aS'injury'
p9420
aS'information'
p9421
aa(lp9422
S'zone'
p9423
aS'report'
p9424
aS'information'
p9425
aS'level'
p9426
aS'strive'
p9427
aS'consistent'
p9428
aS'reporting'
p9429
aS'zone'
p9430
aa(lp9431
S'lost'
p9432
aS'day'
p9433
aS'severity'
p9434
aS'rate'
p9435
aS'supply'
p9436
aS'number'
p9437
aS'lost'
p9438
aS'day'
p9439
aS'measure'
p9440
aS'severity'
p9441
aS'injury'
p9442
aa(lp9443
S'number'
p9444
aS'day'
p9445
aS'lost'
p9446
aS'injury'
p9447
aS'severity'
p9448
aS'rate'
p9449
aS'number'
p9450
aS'lost'
p9451
aS'day'
p9452
aS'hour'
p9453
aS'worked'
p9454
aS'increased'
p9455
aS'percent'
p9456
aS'reduction'
p9457
aS'lost'
p9458
aS'time'
p9459
aS'injury'
p9460
aa(lp9461
S'injury'
p9462
aS'required'
p9463
aS'longer'
p9464
aa(lp9465
S'hazard'
p9466
aS'incident'
p9467
aS'reporting'
p9468
aS'supply'
p9469
aS'facility'
p9470
aS'implement'
p9471
aS'vpo'
p9472
aS'safety'
p9473
aS'initiative'
p9474
aS'focus'
p9475
aS'hazard'
p9476
aS'incident'
p9477
aS'reporting'
p9478
aS'risk'
p9479
aS'assessment'
p9480
aS'accident'
p9481
aS'reporting'
p9482
aa(lp9483
S'employee'
p9484
aS'reported'
p9485
aS'potential'
p9486
aS'hazard'
p9487
aS'covering'
p9488
aS'condition'
p9489
aS'behavior'
p9490
aa(lp9491
S'eliminating'
p9492
aS'hazard'
p9493
aS'able'
p9494
aS'reduce'
p9495
aS'incident'
p9496
aS'accident'
p9497
aa(lp9498
S'corporate'
p9499
aS'governance'
p9500
aS'ab'
p9501
aS'corporate'
p9502
aS'governance'
p9503
aS'rule'
p9504
aS'established'
p9505
aS'board'
p9506
aS'director'
p9507
aS'updated'
p9508
aS'june'
p9509
aS'help'
p9510
aS'properly'
p9511
aS'manage'
p9512
aS'business'
p9513
aS'vision'
p9514
aS'speed'
p9515
aS'operation'
p9516
aa(lp9517
S'company'
p9518
aS'belgian'
p9519
aS'law'
p9520
aS'euronext'
p9521
aS'exchange'
p9522
aS'ab'
p9523
aS'principle'
p9524
aS'belgian'
p9525
aS'corporate'
p9526
aS'governance'
p9527
aS'code'
p9528
aS'published'
p9529
aS'march'
p9530
aS'recognizing'
p9531
aS'status'
p9532
aS'group'
p9533
aa(lp9534
S'new'
p9535
aS'york'
p9536
aS'stock'
p9537
aS'exchange'
p9538
aS'american'
p9539
aS'share'
p9540
aS'share'
p9541
aS'ab'
p9542
aS'new'
p9543
aS'york'
p9544
aS'stock'
p9545
aS'exchange'
p9546
aS'corporate'
p9547
aS'governance'
p9548
aS'rule'
p9549
aS'private'
p9550
aS'applicable'
p9551
aS'company'
p9552
aa(lp9553
S'ab'
p9554
aS'registered'
p9555
ag5279
aS'security'
p9556
aS'exchange'
p9557
aS'act'
p9558
aa(lp9559
S'result'
p9560
aS'subject'
p9561
ag5279
aS'act'
p9562
aS'certain'
p9563
ag5279
aS'security'
p9564
aS'law'
p9565
aS'regulation'
p9566
aS'corporate'
p9567
aS'governance'
p9568
aa(lp9569
S'corporate'
p9570
aS'governance'
p9571
aS'published'
p9572
aS'online'
p9573
aS'provides'
p9574
aS'comprehensive'
p9575
aS'disclosure'
p9576
aS'company'
p9577
aS'governance'
p9578
aa(lp9579
S'report'
p9580
aS'corporate'
p9581
aS'governance'
p9582
aS'activity'
p9583
aS'company'
p9584
aS'online'
p9585
aS'annual'
p9586
aS'report'
p9587
aa(lp9588
S'code'
p9589
aS'business'
p9590
aS'conduct'
p9591
aS'compliance'
p9592
aS'program'
p9593
aS'corporate'
p9594
aS'governance'
p9595
aS'framework'
p9596
aS'global'
p9597
aS'code'
p9598
aS'business'
p9599
aS'conduct'
p9600
aS'anti'
p9601
aS'corruption'
p9602
aS'policy'
p9603
aS'compliance'
p9604
aS'program'
p9605
aS'establish'
p9606
aS'guideline'
p9607
aS'education'
p9608
aS'training'
p9609
aS'safeguard'
p9610
aS'remind'
p9611
aS'employee'
p9612
aS'company'
p9613
aS'strong'
p9614
aS'corruption'
p9615
aS'non'
p9616
aS'compliant'
p9617
aS'behavior'
p9618
aS'ensure'
p9619
aS'company'
p9620
aS'upholds'
p9621
aS'high'
p9622
aS'standard'
p9623
aS'integrity'
p9624
aS'business'
p9625
aS'related'
p9626
aS'activity'
p9627
aa(lp9628
S'code'
p9629
aS'policy'
p9630
aS'compliance'
p9631
aS'program'
p9632
aS'compliance'
p9633
aS'law'
p9634
aS'including'
p9635
aS'competition'
p9636
aS'environmental'
p9637
aS'labor'
p9638
aS'law'
p9639
aa(lp9640
S'potential'
p9641
aS'conflict'
p9642
aS'use'
p9643
aS'company'
p9644
aS'asset'
p9645
aS'honest'
p9646
aS'ethical'
p9647
aS'conduct'
p9648
aS'including'
p9649
aS'safeguard'
p9650
aS'bribery'
p9651
aS'corruption'
p9652
aS'covered'
p9653
aa(lp9654
S'executive'
p9655
aS'board'
p9656
aS'management'
p9657
aS'board'
p9658
aS'director'
p9659
aS'audit'
p9660
aS'committee'
p9661
aS'receive'
p9662
aS'regular'
p9663
aS'progress'
p9664
aS'report'
p9665
aS'matter'
p9666
aS'related'
p9667
aS'compliance'
p9668
aS'program'
p9669
aa(lp9670
S'number'
p9671
aS'support'
p9672
aS'code'
p9673
aS'business'
p9674
aS'conduct'
p9675
aS'anti'
p9676
aS'corruption'
p9677
aS'policy'
p9678
aS'compliance'
p9679
aS'program'
p9680
aS'including'
p9681
aS'annual'
p9682
aS'online'
p9683
aS'training'
p9684
aS'certification'
p9685
aS'program'
p9686
aS'employee'
p9687
aS'global'
p9688
aS'zone'
p9689
aS'compliance'
p9690
aS'committee'
p9691
aS'include'
p9692
aS'participation'
p9693
aS'senior'
p9694
aS'member'
p9695
aS'management'
p9696
aa(lp9697
S'board'
p9698
aS'director'
p9699
aS'received'
p9700
aS'anti'
p9701
aS'corruption'
p9702
aS'compliance'
p9703
aS'training'
p9704
aS'annual'
p9705
aS'basis'
p9706
aa(lp9707
S'addition'
p9708
aS'employee'
p9709
aS'received'
p9710
aS'person'
p9711
aS'training'
p9712
aS'year'
p9713
aa(lp9714
S'independent'
p9715
aS'help'
p9716
aS'line'
p9717
aS'available'
p9718
aS'employee'
p9719
aS'hour'
p9720
aS'day'
p9721
aS'day'
p9722
aS'week'
p9723
aa(lp9724
S'employee'
p9725
aS'concern'
p9726
aS'basis'
p9727
aS'independent'
p9728
aS'website'
p9729
aa(lp9730
S'active'
p9731
aS'case'
p9732
aS'call'
p9733
aS'monitor'
p9734
aS'number'
p9735
aS'case'
p9736
aS'provide'
p9737
aS'regular'
p9738
aS'report'
p9739
aS'board'
p9740
aS'audit'
p9741
aS'committee'
p9742
aa(lp9743
S'leader'
p9744
aS'csr'
p9745
aS'ab'
p9746
aS'set'
p9747
aS'positive'
p9748
aS'brand'
p9749
aS'social'
p9750
aS'image'
p9751
aS'industry'
p9752
aa(lp9753
S'believe'
p9754
aS'leadership'
p9755
aS'enterprise'
p9756
aS'industry'
p9757
aS'march'
p9758
aS'new'
p9759
aS'era'
p9760
aS'self'
p9761
aS'regulation'
p9762
aS'responsibility'
p9763
aS'china'
p9764
aS'alcoholic'
p9765
aS'drink'
p9766
aS'industry'
p9767
aS'association'
p9768
aS'people'
p9769
aS'euronext'
p9770
aS'abi'
p9771
aS'bud'
p9772
aS'based'
p9773
aS'leuven'
p9774
aS'belgium'
p9775
aS'world'
p9776
aS'leading'
p9777
aS'brewer'
p9778
aa(lp9779
S'consumer'
p9780
aS'product'
p9781
aS'company'
p9782
aS'produce'
p9783
aS'world'
p9784
aS'beer'
p9785
aa(lp9786
S'history'
p9787
aS'founding'
p9788
aS'den'
p9789
aS'hoorn'
p9790
aS'brewery'
p9791
aS'leuven'
p9792
aS'brewery'
p9793
aS'built'
p9794
aS'st'
p9795
aS'louis'
p9796
aS'missouri'
p9797
aa(lp9798
S'year'
p9799
aS'focused'
p9800
aS'ideal'
p9801
aS'set'
p9802
aS'continue'
p9803
aS'live'
p9804
aS'ideal'
p9805
aS'today'
p9806
aS'grown'
p9807
aS'global'
p9808
aS'company'
p9809
aS'operation'
p9810
aS'country'
p9811
aa(lp9812
S'living'
p9813
aS'ideal'
p9814
aS'dedicated'
p9815
aS'workforce'
p9816
aS'employee'
p9817
aS'making'
p9818
aS'innovative'
p9819
aS'meaningful'
p9820
aS'progress'
p9821
aS'work'
p9822
aS'achieve'
p9823
aS'goal'
p9824
aS'best'
p9825
aS'beer'
p9826
aS'company'
p9827
aS'better'
p9828
aS'world'
p9829
aa(lp9830
S'ab'
p9831
aS'portfolio'
p9832
aS'beer'
p9833
aS'brand'
p9834
aS'including'
p9835
aS'global'
p9836
aS'brand'
p9837
aS'budweiser'
p9838
aS'beck'
p9839
aS'fast'
p9840
aS'growing'
p9841
aS'multi'
p9842
aS'country'
p9843
aS'brand'
p9844
aS'hoegaarden'
p9845
aS'local'
p9846
aS'champion'
p9847
aS'bud'
p9848
aS'light'
p9849
aS'brahma'
p9850
aS'quilmes'
p9851
aS'michelob'
p9852
aS'ultra'
p9853
aS'jupiler'
p9854
aa(lp9855
S'location'
p9856
aS'leuven'
p9857
aS'belgium'
p9858
aS'location'
p9859
aS'country'
p9860
aS'geographic'
p9861
aS'zone'
p9862
aS'north'
p9863
aS'america'
p9864
aS'latin'
p9865
aS'america'
p9866
aS'north'
p9867
aS'latin'
p9868
aS'america'
p9869
aS'south'
p9870
aS'western'
p9871
aS'europe'
p9872
aS'central'
p9873
aS'eastern'
p9874
aS'europe'
p9875
aS'asia'
p9876
aS'pacific'
p9877
aS'recognition'
p9878
aS'proud'
p9879
aS'recognition'
p9880
aS'company'
p9881
aS'better'
p9882
aS'world'
p9883
aS'work'
p9884
aS'globally'
p9885
aS'locally'
p9886
aS'past'
p9887
aS'year'
p9888
aa(lp9889
S'example'
p9890
aS'world'
p9891
aS'company'
p9892
aa(lp9893
S'overall'
p9894
aS'beverage'
p9895
aS'company'
p9896
aa(lp9897
S'alcohol'
p9898
aS'company'
p9899
aS'social'
p9900
aS'responsibility'
p9901
aS'beverage'
p9902
aS'company'
p9903
aS'international'
p9904
aS'quality'
p9905
aS'era'
p9906
aS'award'
p9907
aS'argentina'
p9908
aS'cervecer'
p9909
ag8287
aS'malter'
p9910
aS'quilmes'
p9911
aS'argentina'
p9912
aS'business'
p9913
aS'unit'
p9914
aS'awarded'
p9915
aS'ranking'
p9916
aS'annual'
p9917
aS'program'
p9918
aS'business'
p9919
aS'initiative'
p9920
aS'direction'
p9921
aS'award'
p9922
aa(lp9923
S'given'
p9924
aS'recognition'
p9925
aS'corporate'
p9926
aS'achievement'
p9927
aS'leadership'
p9928
aS'quality'
p9929
aS'innovation'
p9930
aS'excellence'
p9931
aS'technology'
p9932
aS'customer'
p9933
aS'service'
p9934
aa(lp9935
S'best'
p9936
aS'company'
p9937
aS'work'
p9938
aS'brazil'
p9939
aS'brazil'
p9940
aS'business'
p9941
aS'unit'
p9942
aS'selected'
p9943
aS'great'
p9944
aS'place'
p9945
aS'work'
p9946
aS'institute'
p9947
aS'partnership'
p9948
aS'annual'
p9949
aS'ranking'
p9950
aa(lp9951
S'survey'
p9952
aS'regarding'
p9953
aS'good'
p9954
aS'management'
p9955
aS'practice'
p9956
aS'brazilian'
p9957
aS'market'
p9958
aS'employee'
p9959
aS'relationship'
p9960
aS'employee'
p9961
aS'company'
p9962
aa(lp9963
S'outstanding'
p9964
aS'enterprise'
p9965
aS'award'
p9966
aS'china'
p9967
aS'presented'
p9968
aS'china'
p9969
aS'business'
p9970
aS'leading'
p9971
ag5195
aS'group'
p9972
aS'award'
p9973
aS'presented'
p9974
aS'recognition'
p9975
aS'continued'
p9976
aS'commitment'
p9977
aS'corporate'
p9978
aS'social'
p9979
aS'responsibility'
p9980
aS'china'
p9981
aa(lp9982
S'greenlight'
p9983
aS'award'
p9984
aS'europe'
p9985
aS'presented'
p9986
aS'european'
p9987
aS'commission'
p9988
aS'greenlight'
p9989
aS'award'
p9990
aS'initiative'
p9991
aS'annually'
p9992
aS'recognize'
p9993
aS'company'
p9994
aS'organization'
p9995
aS'energy'
p9996
aS'saving'
p9997
aS'effort'
p9998
aS'thanks'
p9999
aS'installation'
p10000
aS'energy'
p10001
aS'efficient'
p10002
aS'lighting'
p10003
aS'technology'
p10004
aa(lp10005
S'western'
p10006
aS'europe'
p10007
aS'operation'
p10008
aS'installed'
p10009
aS'eco'
p10010
aS'efficient'
p10011
aS'lighting'
p10012
aS'project'
p10013
aS'hoegaarden'
p10014
aS'leuven'
p10015
aS'brewery'
p10016
aa(lp10017
S'project'
p10018
aS'average'
p10019
aS'annual'
p10020
aS'energy'
p10021
aS'saving'
p10022
aS'lighting'
p10023
aS'percent'
p10024
aa(lp10025
S'environmental'
p10026
aS'management'
p10027
aS'russia'
p10028
aS'sun'
p10029
aS'russia'
p10030
aS'business'
p10031
aS'unit'
p10032
aS'recognized'
p10033
aS'leading'
p10034
aS'company'
p10035
aS'field'
p10036
aS'environmental'
p10037
aS'management'
p10038
aa(lp10039
S'chosen'
p10040
aS'based'
p10041
aS'ministry'
p10042
aS'environment'
p10043
aS'regional'
p10044
aS'representative'
p10045
aS'company'
p10046
aS'environmental'
p10047
aS'result'
p10048
aS'past'
p10049
aS'year'
p10050
aa(lp10051
S'united'
p10052
aS'nation'
p10053
aS'global'
p10054
aS'compact'
p10055
aS'commitment'
p10056
aS'member'
p10057
aS'united'
p10058
aS'nation'
p10059
aS'global'
p10060
aS'compact'
p10061
aS'ungc'
p10062
aa(lp10063
S'report'
p10064
aS'cover'
p10065
aS'practical'
p10066
aS'action'
p10067
aS'partnership'
p10068
aS'implement'
p10069
aS'ungc'
p10070
aS'principle'
p10071
aS'serf'
p10072
aS'annual'
p10073
aS'communication'
p10074
aS'progress'
p10075
aa(lp10076
S'summary'
p10077
aS'effort'
p10078
aS'provided'
p10079
aS'table'
p10080
aa(lp10081
S'signatory'
p10082
aS'ungc'
p10083
aS'ceo'
p10084
aS'water'
p10085
aS'mandate'
p10086
aa(lp10087
S'water'
p10088
aS'section'
p10089
aS'report'
p10090
aS'page'
p10091
aS'report'
p10092
aS'annual'
p10093
aS'communication'
p10094
aS'progress'
p10095
aa(lp10096
S'summary'
p10097
aS'effort'
p10098
aS'provided'
p10099
aS'table'
p10100
aa(lp10101
S'signatory'
p10102
aS'ungc'
p10103
aS'ceo'
p10104
aS'water'
p10105
aS'mandate'
p10106
aa(lp10107
S'water'
p10108
aS'section'
p10109
aS'report'
p10110
aS'page'
p10111
aS'report'
p10112
aS'annual'
p10113
aS'communication'
p10114
aS'progress'
p10115
aa(lp10116
S'business'
p10117
aS'support'
p10118
aS'respect'
p10119
aS'protection'
p10120
aS'human'
p10121
aS'right'
p10122
aa(lp10123
S'global'
p10124
aS'code'
p10125
aS'business'
p10126
aS'conduct'
p10127
aS'prohibits'
p10128
aS'human'
p10129
aS'right'
p10130
aa(lp10131
S'addition'
p10132
aS'responsible'
p10133
aS'sourcing'
p10134
aS'policy'
p10135
aS'help'
p10136
aS'drive'
p10137
aS'value'
p10138
aS'supply'
p10139
aS'chain'
p10140
aa(lp10141
S'business'
p10142
aS'make'
p10143
aS'human'
p10144
aS'right'
p10145
aS'abuse'
p10146
aa(lp10147
S'website'
p10148
aa(lp10149
S'business'
p10150
aS'freedom'
p10151
aS'association'
p10152
aS'effective'
p10153
aS'recognition'
p10154
aS'right'
p10155
aS'collective'
p10156
aS'bargaining'
p10157
aa(lp10158
S'continue'
p10159
aS'adhere'
p10160
aS'collective'
p10161
aS'bargaining'
p10162
aS'place'
p10163
aS'global'
p10164
aS'operation'
p10165
aa(lp10166
S'employee'
p10167
aS'involvement'
p10168
aS'decision'
p10169
aS'making'
p10170
aS'worker'
p10171
aS'council'
p10172
aS'organization'
p10173
aa(lp10174
S'addition'
p10175
aS'responsible'
p10176
aS'sourcing'
p10177
aS'policy'
p10178
aS'recognizes'
p10179
aS'right'
p10180
aS'employee'
p10181
aS'engage'
p10182
aS'collective'
p10183
aS'bargaining'
p10184
aa(lp10185
S'website'
p10186
aa(lp10187
S'business'
p10188
aS'support'
p10189
aS'elimination'
p10190
aS'form'
p10191
aS'forced'
p10192
aS'labor'
p10193
aa(lp10194
S'global'
p10195
aS'code'
p10196
aS'business'
p10197
aS'conduct'
p10198
aS'responsible'
p10199
aS'sourcing'
p10200
aS'policy'
p10201
aS'form'
p10202
aS'labor'
p10203
aS'supplier'
p10204
aS'operation'
p10205
aa(lp10206
S'business'
p10207
aS'support'
p10208
aS'effective'
p10209
aS'child'
p10210
aS'labor'
p10211
aa(lp10212
S'website'
p10213
aa(lp10214
S'business'
p10215
aS'support'
p10216
aS'elimination'
p10217
aS'discrimination'
p10218
aS'respect'
p10219
aS'employment'
p10220
aa(lp10221
S'legal'
p10222
aS'corporate'
p10223
aS'audit'
p10224
aS'monitor'
p10225
aS'legal'
p10226
aS'compliance'
p10227
aS'principle'
p10228
aS'non'
p10229
aS'discrimination'
p10230
aa(lp10231
S'responsible'
p10232
aS'sourcing'
p10233
aS'policy'
p10234
aS'address'
p10235
aS'non'
p10236
aS'discrimination'
p10237
aS'supplier'
p10238
aS'operation'
p10239
aa(lp10240
S'business'
p10241
aS'support'
p10242
aS'precautionary'
p10243
aS'approach'
p10244
aS'environmental'
p10245
aS'challenge'
p10246
aa(lp10247
S'business'
p10248
aS'initiative'
p10249
aS'promote'
p10250
aS'greater'
p10251
aS'environmental'
p10252
aS'responsibility'
p10253
aa(lp10254
S'business'
p10255
aS'encourage'
p10256
aS'development'
p10257
aS'environmentally'
p10258
aS'friendly'
p10259
aS'technology'
p10260
aa(lp10261
S'business'
p10262
aS'work'
p10263
aS'form'
p10264
aS'corruption'
p10265
aS'including'
p10266
aS'bribery'
p10267
aa(lp10268
S'working'
p10269
aS'ass'
p10270
aS'risk'
p10271
aS'water'
p10272
aS'stressed'
p10273
aS'area'
p10274
aS'operation'
p10275
aS'agricultural'
p10276
aS'supply'
p10277
aS'chain'
p10278
aa(lp10279
S'additionally'
p10280
aS'voyager'
p10281
aS'plant'
p10282
aS'optimization'
p10283
aS'vpo'
p10284
aS'management'
p10285
aS'promotes'
p10286
aS'best'
p10287
aS'practice'
p10288
aS'brewery'
p10289
aS'management'
p10290
aa(lp10291
S'vpo'
p10292
aS'management'
p10293
aS'promotes'
p10294
aS'environmental'
p10295
aS'efficiency'
p10296
aS'operation'
p10297
aa(lp10298
S'reached'
p10299
aS'surpassed'
p10300
aS'aggressive'
p10301
aS'year'
p10302
aS'environmental'
p10303
aS'target'
p10304
aS'used'
p10305
aS'hectoliter'
p10306
aS'water'
p10307
aS'hectoliter'
p10308
aS'production'
p10309
aS'reduced'
p10310
aS'greenhouse'
p10311
aS'gas'
p10312
aS'emission'
p10313
aS'nearly'
p10314
aS'percent'
p10315
aS'energy'
p10316
aS'use'
p10317
aS'percent'
p10318
aS'achieved'
p10319
aS'recycling'
p10320
aS'rate'
p10321
aS'percent'
p10322
aS'solid'
p10323
aS'waste'
p10324
aS'finding'
p10325
aS'high'
p10326
aS'value'
p10327
aS'us'
p10328
aS'collaborating'
p10329
aS'supplier'
p10330
aS'company'
p10331
aS'reduce'
p10332
aS'environmental'
p10333
aS'impact'
p10334
aa(lp10335
S'page'
p10336
aS'aim'
p10337
aS'employ'
p10338
aS'environmentally'
p10339
aS'efficient'
p10340
aS'brewing'
p10341
aS'packaging'
p10342
aS'technology'
p10343
aS'maintaining'
p10344
aS'commitment'
p10345
aS'quality'
p10346
aa(lp10347
S'vpo'
p10348
aS'management'
p10349
aS'promotes'
p10350
aS'sharing'
p10351
aS'best'
p10352
aS'practice'
p10353
aS'operation'
p10354
aa(lp10355
S'page'
p10356
aS'global'
p10357
aS'code'
p10358
aS'business'
p10359
aS'conduct'
p10360
aS'prohibits'
p10361
aS'payment'
p10362
aS'annual'
p10363
aS'code'
p10364
aS'training'
p10365
aa(lp10366
S'turn'
p10367
aS'responsible'
p10368
aS'sourcing'
p10369
aS'policy'
p10370
aS'address'
p10371
aS'business'
p10372
aS'conduct'
p10373
aS'supplier'
p10374
aa(lp10375
S'report'
p10376
aS'present'
p10377
aS'annual'
p10378
aS'update'
p10379
aS'key'
p10380
aS'performance'
p10381
aS'data'
p10382
aS'information'
p10383
aS'year'
p10384
aS'provides'
p10385
aS'data'
p10386
aS'specific'
p10387
aS'target'
p10388
aS'better'
p10389
aS'world'
p10390
aS'year'
p10391
aS'plan'
p10392
aS'approved'
p10393
aS'board'
p10394
aS'director'
p10395
aS'october'
p10396
aS'report'
p10397
aS'structure'
p10398
aS'parallel'
p10399
aS'better'
p10400
aS'world'
p10401
aS'focus'
p10402
aS'area'
p10403
aS'responsible'
p10404
aS'drinking'
p10405
aS'environment'
p10406
aS'community'
p10407
aS'pillar'
p10408
aS'global'
p10409
aS'citizenship'
p10410
aS'defined'
p10411
aS'assessment'
p10412
aS'supported'
p10413
aS'people'
p10414
aa(lp10415
S'information'
p10416
aS'presented'
p10417
aS'ab'
p10418
aS'operation'
p10419
aS'including'
p10420
aS'global'
p10421
aS'brewery'
p10422
aS'soft'
p10423
aS'drink'
p10424
aS'facility'
p10425
aa(lp10426
S'beverage'
p10427
aS'facility'
p10428
aS'included'
p10429
aS'voyager'
p10430
aS'plant'
p10431
aS'optimization'
p10432
aS'management'
p10433
aa(lp10434
S'report'
p10435
aS'intended'
p10436
aS'provide'
p10437
aS'meaningful'
p10438
aS'update'
p10439
aS'various'
p10440
aS'stakeholder'
p10441
aS'group'
p10442
aS'world'
p10443
aa(lp10444
S'include'
p10445
aS'employee'
p10446
aS'government'
p10447
aS'ngo'
p10448
aS'customer'
p10449
aS'consumer'
p10450
aS'country'
p10451
aS'operate'
p10452
aa(lp10453
S'data'
p10454
aS'story'
p10455
aS'presented'
p10456
aS'assistance'
p10457
aS'content'
p10458
aS'owner'
p10459
aS'function'
p10460
aS'geographic'
p10461
aS'zone'
p10462
aa(lp10463
S'global'
p10464
aS'reporting'
p10465
aS'initiative'
p10466
aS'sustainability'
p10467
aS'reporting'
p10468
aS'guideline'
p10469
aS'self'
p10470
aS'reporting'
p10471
aS'level'
p10472
ag3447
aS'plan'
p10473
aS'seek'
p10474
aS'external'
p10475
aS'report'
p10476
aa(lp10477
S'multi'
p10478
aS'national'
p10479
aS'company'
p10480
aS'business'
p10481
aS'subject'
p10482
aS'certain'
p10483
aS'risk'
p10484
aS'outside'
p10485
aS'control'
p10486
aa(lp10487
S'risk'
p10488
aS'include'
p10489
aS'limited'
p10490
aS'impact'
p10491
aS'water'
p10492
aS'availability'
p10493
aS'climate'
p10494
aS'change'
p10495
aS'economic'
p10496
aS'negative'
p10497
aS'ability'
p10498
aS'hire'
p10499
aS'retain'
p10500
aS'best'
p10501
aS'talent'
p10502
aS'government'
p10503
aS'regulation'
p10504
aS'reputation'
p10505
aS'brand'
p10506
aS'ability'
p10507
aS'make'
p10508
aS'capital'
p10509
aS'stock'
p10510
aS'market'
p10511
aS'associated'
p10512
aS'risk'
p10513
aa(lp10514
S'detailed'
p10515
aS'analysis'
p10516
aS'risk'
p10517
aS'company'
p10518
aS'face'
p10519
aS'annual'
p10520
ag5279
aS'security'
p10521
aS'exchange'
p10522
aS'commission'
p10523
aS'form'
p10524
ag5168
aS'additional'
p10525
aS'information'
p10526
aS'ab'
p10527
aS'global'
p10528
aS'greenhouse'
p10529
aS'gas'
p10530
aS'water'
p10531
aS'risk'
p10532
aS'management'
p10533
aS'performance'
p10534
aS'available'
p10535
aS'carbon'
p10536
aS'disclosure'
p10537
aS'project'
p10538
aa(lp10539
S'question'
p10540
aS'regarding'
p10541
aS'content'
p10542
aS'report'
p10543
aS'ab'
p10544
aS'com'
p10545
aa(lp10546
S'solution'
p10547
aS'social'
p10548
aS'environmental'
p10549
aS'economic'
p10550
aS'coffee'
p10551
aS'bean'
p10552
aS'international'
p10553
aS'coffee'
p10554
aS'roaster'
p10555
aa(lp10556
S'development'
p10557
aS'strive'
p10558
aS'coffee'
p10559
aa(lp10560
S'innovative'
p10561
aS'approach'
p10562
aS'point'
p10563
aS'supply'
p10564
aS'chain'
p10565
aS'relationship'
p10566
aS'grower'
p10567
aS'material'
p10568
aS'sourcing'
p10569
aS'product'
p10570
aS'distribution'
p10571
aS'waste'
p10572
aS'recycling'
p10573
aa(lp10574
S'point'
p10575
aS'challenge'
p10576
aS'make'
p10577
aS'difference'
p10578
aa(lp10579
S'decision'
p10580
aS'guided'
p10581
aS'value'
p10582
aa(lp10583
S'seek'
p10584
aS'solution'
p10585
aS'environmentally'
p10586
aS'economically'
p10587
aa(lp10588
a(lp10589
S'team'
p10590
aa(lp10591
S'pledge'
p10592
aS'develop'
p10593
aS'strategy'
p10594
aS'link'
p10595
aS'people'
p10596
aS'process'
p10597
aS'product'
p10598
aS'place'
p10599
aS'profit'
p10600
aS'meeting'
p10601
aS'need'
p10602
aS'present'
p10603
aS'welfare'
p10604
aS'future'
p10605
aS'generation'
p10606
aa(lp10607
S'mission'
p10608
aS'commit'
p10609
aS'reduce'
p10610
aS'waste'
p10611
aS'reduce'
p10612
aS'greenhouse'
p10613
aS'gas'
p10614
aS'emission'
p10615
aS'pursue'
p10616
aS'renewable'
p10617
aS'energy'
p10618
aS'option'
p10619
aS'educate'
p10620
aS'employee'
p10621
aS'community'
p10622
aS'unify'
p10623
aS'stakeholder'
p10624
aS'affect'
p10625
aS'positive'
p10626
aS'social'
p10627
aS'change'
p10628
aS'foster'
p10629
aS'creativity'
p10630
aa(lp10631
S'defining'
p10632
aS'thank'
p10633
aS'attention'
p10634
aS'sustainability'
p10635
aS'report'
p10636
aa(lp10637
S'document'
p10638
aS'care'
p10639
aS'performance'
p10640
aS'sustainability'
p10641
aS'supply'
p10642
aS'chain'
p10643
aa(lp10644
S'hope'
p10645
aS'learn'
p10646
aS'importantly'
p10647
aS'learn'
p10648
aS'think'
p10649
aS'approach'
p10650
aS'business'
p10651
aS'collective'
p10652
aS'impact'
p10653
aS'environment'
p10654
aS'collective'
p10655
aS'social'
p10656
aS'responsibility'
p10657
aa(lp10658
S've'
p10659
aS'gone'
p10660
aS'business'
p10661
aS'carbon'
p10662
aS'footprint'
p10663
aS'measurement'
p10664
aS'reporting'
p10665
aS'building'
p10666
aS'program'
p10667
aS'improve'
p10668
aS'social'
p10669
aS'condition'
p10670
aS'country'
p10671
aS've'
p10672
aS'learned'
p10673
aS'reporting'
p10674
aS'standard'
p10675
aS'industry'
p10676
aS'like'
p10677
aS'industry'
p10678
aa(lp10679
S'reporting'
p10680
aS'rule'
p10681
aS'place'
p10682
aS'aim'
p10683
aS'total'
p10684
aS'transparency'
p10685
aS'understand'
p10686
aS'measure'
p10687
aa(lp10688
S'try'
p10689
aS'result'
p10690
aS'way'
p10691
aS'accountable'
p10692
aS'hard'
p10693
aS'achieve'
p10694
aS'goal'
p10695
aa(lp10696
S'document'
p10697
aS'fiscal'
p10698
aS'year'
p10699
aS'june'
p10700
aS'deep'
p10701
aS'specific'
p10702
aS'initiative'
p10703
aS'category'
p10704
aS'social'
p10705
aS'environmental'
p10706
aS'economic'
p10707
aa(lp10708
S'review'
p10709
aS'performance'
p10710
aS'sustainability'
p10711
aS'scorecard'
p10712
aa(lp10713
S'time'
p10714
aS'publication'
p10715
aS'pleased'
p10716
aS'result'
p10717
aa(lp10718
S'going'
p10719
aS'forward'
p10720
aS'know'
p10721
aS'lot'
p10722
aS'work'
p10723
aa(lp10724
S'provide'
p10725
aS'feedback'
p10726
aS'com'
p10727
aa(lp10728
S'thank'
p10729
aS'project'
p10730
ag3214
ag3214
ag3337
aa(lp10731
S'company'
p10732
aS'moved'
p10733
aS'portland'
p10734
aS'focus'
p10735
aS'developing'
p10736
aS'business'
p10737
aa(lp10738
S'partnered'
p10739
aS'mercy'
p10740
aS'corp'
p10741
aS'benefit'
p10742
aS'coffee'
p10743
aS'farmer'
p10744
aS'central'
p10745
aS'america'
p10746
aa(lp10747
S'launched'
p10748
aS'public'
p10749
aS'coffee'
p10750
aS'bar'
p10751
aS'portland'
p10752
aa(lp10753
S'best'
p10754
aS'sustainability'
p10755
aS'award'
p10756
aa(lp10757
S'initiated'
p10758
aS'partnership'
p10759
aS'coffee'
p10760
aS'kid'
p10761
aa(lp10762
S'founding'
p10763
aS'member'
p10764
aS'northwest'
p10765
aS'shade'
p10766
aS'coffee'
p10767
aS'campaign'
p10768
aa(lp10769
S'founded'
p10770
aS'country'
p10771
aS'specialty'
p10772
aS'roaster'
p10773
aS'retailer'
p10774
aa(lp10775
S'founding'
p10776
aS'member'
p10777
aS'specialty'
p10778
aS'coffee'
p10779
aS'association'
p10780
aS'america'
p10781
aa(lp10782
S'specialty'
p10783
aS'roaster'
p10784
ag5279
aS'certified'
p10785
aS'organic'
p10786
aa(lp10787
S'fair'
p10788
aS'trade'
p10789
aS'coffee'
p10790
aS'roaster'
p10791
ag5279
aS'designed'
p10792
aS'built'
p10793
aS'leed'
p10794
aS'certified'
p10795
aS'roasting'
p10796
aS'facility'
p10797
aS'pacific'
p10798
aS'northwest'
p10799
aa(lp10800
S'won'
p10801
aS'portland'
p10802
aS'cup'
p10803
aS'best'
p10804
aS'cup'
p10805
aS'coffee'
p10806
aa(lp10807
S'social'
p10808
aS'coffee'
p10809
aS'bean'
p10810
aS'international'
p10811
aS'encourages'
p10812
aS'respect'
p10813
aS'entire'
p10814
aS'value'
p10815
aS'chain'
p10816
aa(lp10817
S'promote'
p10818
aS'fair'
p10819
aS'safe'
p10820
aS'environment'
p10821
aS'company'
p10822
aS'local'
p10823
aS'community'
p10824
aa(lp10825
S'business'
p10826
aS'practice'
p10827
aS'unify'
p10828
aS'stakeholder'
p10829
aS'employee'
p10830
aS'customer'
p10831
aS'supplier'
p10832
aS'peer'
p10833
aS'affect'
p10834
aS'positive'
p10835
aS'social'
p10836
aS'change'
p10837
aS'foster'
p10838
aS'creativity'
p10839
aa(lp10840
S'believe'
p10841
aS'impact'
p10842
aS'large'
p10843
aS'scale'
p10844
aS'effort'
p10845
aS'improve'
p10846
aS'coffee'
p10847
aS'quality'
p10848
aS'globally'
p10849
aS'improve'
p10850
aS'social'
p10851
aS'million'
p10852
aS'coffee'
p10853
aS'grower'
p10854
aS'increase'
p10855
aS'attention'
p10856
aS'paid'
p10857
aS'critical'
p10858
aS'high'
p10859
aS'quality'
p10860
aS'coffee'
p10861
aS'green'
p10862
aS'canopy'
p10863
aS'natural'
p10864
aS'fertilizer'
p10865
aS'water'
p10866
aS'quality'
p10867
aS'organic'
p10868
aa(lp10869
S'page'
p10870
aS'sustainability'
p10871
aS'scorecard'
p10872
aa(lp10873
S'environmental'
p10874
aS'economic'
p10875
aS'coffee'
p10876
aS'bean'
p10877
aS'international'
p10878
aS'moved'
p10879
aS'september'
p10880
aS'new'
p10881
aS'facility'
p10882
aS'warehouse'
p10883
aS'core'
p10884
aS'competency'
p10885
aS'artisan'
p10886
aS'coffee'
p10887
aS'roasting'
p10888
aS'scale'
p10889
aa(lp10890
S'coffee'
p10891
aS'roaster'
p10892
aS'northwest'
p10893
aS'second'
p10894
aS'achieve'
p10895
aS'leed'
p10896
aS'certification'
p10897
aa(lp10898
S'addition'
p10899
aS'efficiency'
p10900
aS'leed'
p10901
aS'certified'
p10902
aS'building'
p10903
aS'proud'
p10904
aS'reduction'
p10905
aS'pound'
p10906
aS'delivered'
p10907
aS'waste'
p10908
aS'stream'
p10909
aS'reduction'
p10910
aS'greenhouse'
p10911
aS'gas'
p10912
aS'emission'
p10913
aS'pound'
p10914
aS'coffee'
p10915
aa(lp10916
S'thanks'
p10917
aS'guidance'
p10918
aS'city'
p10919
aS'portland'
p10920
aS'planning'
p10921
aS'sustainability'
p10922
aS'climate'
p10923
aS'smart'
p10924
aS'right'
p10925
aS'direction'
p10926
aS'impact'
p10927
aa(lp10928
S'page'
p10929
aS'sustainability'
p10930
aS'scorecard'
p10931
aa(lp10932
S'track'
p10933
aS'impact'
p10934
aS'key'
p10935
aS'area'
p10936
aS'percentage'
p10937
aS'coffee'
p10938
aS'fair'
p10939
aS'trade'
p10940
aS'certified'
p10941
aS'farm'
p10942
aS'percentage'
p10943
aS'coffee'
p10944
aS'direct'
p10945
aS'trade'
p10946
aS'farm'
p10947
aS'coffee'
p10948
aS'stewardship'
p10949
aS'donation'
p10950
aS'employee'
p10951
aS'annually'
p10952
aS'farm'
p10953
aS'visit'
p10954
aS'key'
p10955
aS'partner'
p10956
aS'sustainability'
p10957
aS'important'
p10958
aS'coffee'
p10959
aS'portfolio'
p10960
aS'support'
p10961
aS'provided'
p10962
aS'coffee'
p10963
aS'bean'
p10964
aS'international'
p10965
aS'key'
p10966
aS'achieving'
p10967
aS'mission'
p10968
aS'director'
p10969
aS'specialty'
p10970
aS'coffee'
p10971
aS'thanks'
p10972
aS'coffee'
p10973
aS'bean'
p10974
aS'international'
p10975
aS'commitment'
p10976
aS'clean'
p10977
aS'renewable'
p10978
aS'wind'
p10979
aS'energy'
p10980
aS'million'
p10981
aS'pound'
p10982
aS'pollution'
p10983
aS'associated'
p10984
aS'fossil'
p10985
aS'fuel'
p10986
aS'kept'
p10987
aa(lp10988
S'year'
p10989
aS'company'
p10990
aS'responsible'
p10991
aS'supporting'
p10992
aS'clean'
p10993
aS'wind'
p10994
aS'energy'
p10995
aS'power'
p10996
aS'average'
p10997
aS'american'
p10998
aS'home'
p10999
aS'entire'
p11000
aS'month'
p11001
aS'marketing'
p11002
aS'environmental'
p11003
aS'foundation'
p11004
aS'coffee'
p11005
aS'bean'
p11006
aS'international'
p11007
aS'leadership'
p11008
aS'commitment'
p11009
aS'ongoing'
p11010
aS'tracking'
p11011
aS'reduction'
p11012
aS'greenhouse'
p11013
aS'gas'
p11014
aS'emission'
p11015
aS'share'
p11016
aS'experience'
p11017
aS'business'
p11018
aS'beginning'
p11019
aS'manage'
p11020
aS'carbon'
p11021
aS'footprint'
p11022
aS'director'
p11023
aS'training'
p11024
aS'climate'
p11025
aS'smart'
p11026
aS'looking'
p11027
aS'forward'
p11028
aS'coffee'
p11029
aS'bean'
p11030
aS'international'
p11031
aS'established'
p11032
aS'tremendous'
p11033
aS'leadership'
p11034
aS'sustainability'
p11035
aS'business'
p11036
aS'model'
p11037
aS'industry'
p11038
aa(lp11039
S'scale'
p11040
aS'commitment'
p11041
aS'parallel'
p11042
aS'portland'
p11043
aS'roasting'
p11044
aS'goal'
p11045
aS'achieve'
p11046
aS'carbon'
p11047
aS'engage'
p11048
aS'international'
p11049
aS'sustainability'
p11050
aS'policy'
p11051
aS'sustainability'
p11052
aS'culture'
p11053
aS'continue'
p11054
aS'reduction'
p11055
aS'strategy'
p11056
aS'create'
p11057
aS'sustainable'
p11058
aS'policy'
p11059
aS'employ'
p11060
aS'material'
p11061
aS'source'
p11062
aS'reduction'
p11063
aS'packaging'
p11064
aS'pursue'
p11065
aS'packaging'
p11066
aS'renewable'
p11067
aS'resource'
p11068
aS'company'
p11069
aa.