(lp0
(lp1
Vsafety
p2
aVtraining
p3
aVcommittee
p4
aVcomprised
p5
aVcorporate
p6
aVfacility
p7
aVbased
p8
aVemployee
p9
aVidentifies
p10
aVneed
p11
aVcorporate
p12
aVfacility
p13
aVsafety
p14
aVtraining
p15
aa(lp16
Vwellness
p17
aVfair
p18
aVevent
p19
aVbring
p20
aVhealth
p21
aVrelated
p22
aVactivity
p23
aVworkplace
p24
aVprovide
p25
aVemployee
p26
aVtip
p27
aVwellness
p28
aVjob
p29
aVhome
p30
aa(lp31
Vconduct
p32
aVenvironmental
p33
aVtraining
p34
aVoperating
p35
aVfacility
p36
aVlevel
p37
aVemployee
p38
aVnew
p39
aVemployee
p40
aVfacility
p41
aVmanager
p42
aa(lp43
Vconduct
p44
aVenvironmental
p45
aVaudit
p46
aa(lp47
Vregularly
p48
aVconduct
p49
aVsafety
p50
aVaudit
p51
aVfacility
p52
aVensure
p53
aVcompliance
p54
aVregulation
p55
aVinternal
p56
aVrequirement
p57
aa(lp58
Vchemical
p59
aVmaterial
p60
aVmanagement
p61
aVprogram
p62
aVprovides
p63
aVtracking
p64
aVuse
p65
aVchemical
p66
aVmaterial
p67
aVfacility
p68
aa(lp69
Vwaste
p70
aVsite
p71
aVreview
p72
aVboard
p73
aVresponsible
p74
aVcompany
p75
aVeffort
p76
aVminimize
p77
aVwaste
p78
aVdisposal
p79
aVliability
p80
aVevaluation
p81
aVapproval
p82
aVcommercial
p83
aVwaste
p84
aVfacility
p85
aa(lp86
Vactive
p87
aVprogram
p88
aVencouraging
p89
aVemployee
p90
aVsuggestion
p91
aVrewarding
p92
aVgood
p93
aVidea
p94
aa(lp95
Vbudweiser
p96
aVfamily
p97
aVwholesaler
p98
aVbrand
p99
aVloyal
p100
aVconsumer
p101
aVunited
p102
aVstate
p103
aVraised
p104
aVhelp
p105
aVconservation
p106
aVeffort
p107
aVpopular
p108
aVhelp
p109
aVbudweiser
p110
aVhelp
p111
aVoutdoors
p112
aVprogram
p113
aVnational
p114
aVfish
p115
aVwildlife
p116
aVfoundation
p117
aVnfwf
p118
aVmatch
p119
aVdivide
p120
aVleading
p121
aVconservation
p122
aVorganization
p123
aa(lp124
Vbudweiser
p125
aVconservation
p126
aVscholarship
p127
aVprogram
p128
aVrecognized
p129
aVstudent
p130
aVscholarship
p131
aVscholarship
p132
aVwent
p133
aVindividual
p134
aVinnovation
p135
aVresearch
p136
aVhelp
p137
aVapply
p138
aVeffective
p139
aVsolution
p140
aVconservation
p141
aVproblem
p142
aa(lp143
Vriver
p144
aVnetwork
p145
aVclean
p146
aVwater
p147
aVchampion
p148
aVbusiness
p149
aVpartnership
p150
aVprogram
p151
aVpositive
p152
aVeffect
p153
aVwater
p154
aVquality
p155
aVcommunity
p156
aa(lp157
Vintroduced
p158
aVamerica
p159
aVbeautiful
p160
aVenvironmental
p161
aVgrant
p162
aVprogram
p163
aVgrant
p164
aVawarded
p165
aVamerica
p166
aVbeautiful
p167
aVaffiliate
p168
aVinclude
p169
aVcommunity
p170
aVstatewide
p171
aVvolunteer
p172
aVorganization
p173
aVoutstanding
p174
aVprogram
p175
aVplace
p176
aVprevent
p177
aVlitter
p178
aVreduce
p179
aVwaste
p180
aVbeautifying
p181
aVimproving
p182
aVlocal
p183
aVcommunity
p184
aa(lp185
Vencourages
p186
aVehs
p187
aVawareness
p188
aVresponsibility
p189
aVsupplier
p190
aVwholesaler
p191
aVsupplier
p192
aVcertification
p193
aVprogram
p194
aVincludes
p195
aVehs
p196
aVstandard
p197
aVassist
p198
aVsupplier
p199
aVminimizing
p200
aVenvironmental
p201
aVimpact
p202
aVcreating
p203
aVsafe
p204
aVworkplace
p205
aa(lp206
Vimplementing
p207
aVcompressed
p208
aVair
p209
aVleak
p210
aVdetection
p211
aVprogram
p212
aVoverall
p213
aVreview
p214
aVeffort
p215
aVminimize
p216
aVelectricity
p217
aVuse
p218
aVcompressor
p219
aa(lp220
Vmonitoring
p221
aVmanaging
p222
aVsteam
p223
aVload
p224
aa(lp225
Vboiler
p226
aVefficiency
p227
aVtracking
p228
aVprogram
p229
aVplace
p230
aVrenewed
p231
aVemphasis
p232
aVproper
p233
aVtuning
p234
aVtesting
p235
aVboiler
p236
aVbrewery
p237
aVgoal
p238
aVreducing
p239
aVfuel
p240
aVcost
p241
aVimproving
p242
aVboiler
p243
aVreliability
p244
aVsafety
p245
aVimproving
p246
aVenvironmental
p247
aVperformance
p248
aVe
p249
aVlower
p250
aVemission
p251
aVheat
p252
aVenergy
p253
aVproduced
p254
aa(lp255
Vfairfield
p256
aVcalifornia
p257
aVbrewery
p258
aVreduced
p259
aVelectricity
p260
aVuse
p261
aVrecovering
p262
aVvented
p263
aVsteam
p264
aa(lp265
Vwaste
p266
aVsteam
p267
aVcity
p268
aVpower
p269
aVplant
p270
aVpiped
p271
aVmalt
p272
aVplant
p273
aVused
p274
aVdrying
p275
aVprocess
p276
aVsubstantially
p277
aVreducing
p278
aVneed
p279
aVnatural
p280
aVgas
p281
aVcombustion
p282
aVfacility
p283
aa(lp284
Vearly
p285
aVcartersville
p286
aVgeorgia
p287
aVbrewery
p288
aVlaunched
p289
aVcomprehensive
p290
aVeffort
p291
aVreduce
p292
aVcompressed
p293
aVair
p294
aVusage
p295
aVreducing
p296
aVair
p297
aVdistribution
p298
aVpressure
p299
aVbrewery
p300
aVhelped
p301
aVminimize
p302
aVleak
p303
aa(lp304
Vus
p305
aVbio
p306
aVenergy
p307
aVrecovery
p308
aVsystem
p309
aVbers
p310
aa(lp311
Vcarbon
p312
aVfilter
p313
aVbackwash
p314
aVused
p315
aVirrigation
p316
aVpurpose
p317
aVreplacing
p318
aVuse
p319
aVcity
p320
aVwater
p321
aa(lp322
Vrebalancing
p323
aVhot
p324
aVwater
p325
aVreduced
p326
aVoverflow
p327
aa(lp328
Vwork
p329
aVsupplier
p330
aVunderstand
p331
aVwater
p332
aVmanagement
p333
aVstrategy
p334
aVpotential
p335
aVsupply
p336
aVchain
p337
aVrisk
p338
aVrelated
p339
aVwater
p340
aVissue
p341
aVsupply
p342
aVchain
p343
aVinitiative
p344
aVbegan
p345
aVcompany
p346
aVpackaging
p347
aVsupplier
p348
aVsurveyed
p349
aVsupplier
p350
aVwater
p351
aVusage
p352
aVmet
p353
aVhighest
p354
aVvolume
p355
aVuser
p356
aVlocated
p357
aVarea
p358
aVpotentially
p359
aVface
p360
aVlimited
p361
aVwater
p362
aVavailability
p363
aa(lp364
Vcompany
p365
aVestablished
p366
aVpartnership
p367
aVoutside
p368
aVorganization
p369
aVworking
p370
aVenhancing
p371
aVwater
p372
aVresource
p373
aVriver
p374
aVnetwork
p375
aVizaak
p376
aVwalton
p377
aVleague
p378
aVamerica
p379
aVnational
p380
aVfish
p381
aVwildlife
p382
aVfoundation
p383
aVliving
p384
aVland
p385
aVwater
p386
aa(lp387
Vbrewery
p388
aVfort
p389
aVcollins
p390
aVcolorado
p391
aVjacksonville
p392
aVflorida
p393
aVland
p394
aVapplication
p395
aVprovides
p396
aVenvironmentally
p397
aVsound
p398
aVmethod
p399
aVreturning
p400
aVwater
p401
aVnutrient
p402
aVsoil
p403
aVproduce
p404
aVhigh
p405
aVquality
p406
aVturf
p407
aVforage
p408
aVcrop
p409
aValfalfa
p410
aa(lp411
Vaerobic
p412
aVfinal
p413
aVpolishing
p414
aVprocess
p415
aVtreat
p416
aVwastewater
p417
aVbio
p418
aVenergy
p419
aVrecovery
p420
aa(lp421
Vresulting
p422
aVbiosolids
p423
aVused
p424
aVlandscaping
p425
aVagricultural
p426
aVapplication
p427
aa(lp428
Vconverted
p429
aVform
p430
aVelectronic
p431
aVformat
p432
aVproviding
p433
aValternative
p434
aVpaper
p435
aVhalf
p436
aVcompany
p437
aVform
p438
aa(lp439
Vlid
p440
aVdiameter
p441
aVreduction
p442
aVproject
p443
aVvast
p444
aVmajority
p445
aVcompany
p446
aValuminum
p447
aVcan
p448
aa(lp449
Vreduced
p450
aVthickness
p451
aVpack
p452
aVpackage
p453
aVreducing
p454
aVpaperboard
p455
aVuse
p456
aVmetric
p457
aVton
p458
aa(lp459
Vcompany
p460
aVcontinued
p461
aVconversion
p462
aVhardwood
p463
aVplywood
p464
aVpallet
p465
aVpolypropylene
p466
aVpallet
p467
aVfinished
p468
aVproduct
p469
aVnew
p470
aVpallet
p471
aVdesign
p472
aVpercent
p473
aVrecyclable
p474
aVsanitary
p475
aVwood
p476
aVproving
p477
aVdurable
p478
aVaddition
p479
aVlighter
p480
aVweight
p481
aVdesign
p482
aVallows
p483
aVreduced
p484
aVenergy
p485
aVuse
p486
aVtransportation
p487
aVcost
p488
aa(lp489
Vcompany
p490
aVspends
p491
aVroughly
p492
aVbillion
p493
aVannually
p494
aVbuying
p495
aVproduct
p496
aVmaterial
p497
aVcontaining
p498
aVmetric
p499
aVton
p500
aVpost
p501
aVconsumer
p502
aVmaterial
p503
aVincluding
p504
aVsubstantial
p505
aVamount
p506
aVpackaging
p507
aVmaterial
p508
aVrecycled
p509
aVpaper
p510
aVproduct
p511
aVoffice
p512
aVsupply
p513
aVtowel
p514
aVtissue
p515
aa(lp516
Vtoday
p517
aVcompany
p518
aVrecycles
p519
aVpercent
p520
aVsolid
p521
aVwaste
p522
aVgenerated
p523
aa(lp524
Vrecycling
p525
aVcorporation
p526
aVabrc
p527
aVfounded
p528
aVlargest
p529
aVrecycler
p530
aValuminum
p531
aVcan
p532
aVworld
p533
aa(lp534
Vextends
p535
aVrecycling
p536
aVcommitment
p537
aVsupply
p538
aVchain
p539
aVpartner
p540
aVcompany
p541
aVbegan
p542
aVprogram
p543
aVhelp
p544
aVwholesaler
p545
aVrecycle
p546
aVstretch
p547
aVfilm
p548
aVused
p549
aVsecure
p550
aVpallet
p551
aVbeer
p552
aVtransportation
p553
aa(lp554
Vtransportation
p555
aVadvantage
p556
aVlowering
p557
aVcost
p558
aVimproving
p559
aVservice
p560
aVmanaging
p561
aVtransportation
p562
aVcentrally
p563
aVcompany
p564
aVable
p565
aVimprove
p566
aVutilization
p567
aVavailable
p568
aVvehicle
p569
aVidentify
p570
aVlighter
p571
aVweight
p572
aVvehicle
p573
aVused
p574
aVmaximize
p575
aVuse
p576
aVtruck
p577
aVtransport
p578
aVmaterial
p579
aVreturn
p580
aVtrip
p581
aa(lp582
Vcompany
p583
aVactive
p584
aVparticipant
p585
aVwastewise
p586
aVenvironmental
p587
aVprotection
p588
aVagency
p589
aVepa
p590
aVvoluntary
p591
aVprogram
p592
aVencourages
p593
aVorganization
p594
aVestablish
p595
aVwaste
p596
aVreduction
p597
aVgoal
p598
aVimplement
p599
aVwaste
p600
aVreduction
p601
aVprogram
p602
aVtrack
p603
aVperformance
p604
aVepa
p605
aVhonored
p606
aVwastewise
p607
aVpartner
p608
aVyear
p609
aVlarge
p610
aVbusiness
p611
aVcategory
p612
aVrecognizing
p613
aVcompany
p614
aVeffectiveness
p615
aVminimizing
p616
aVpollution
p617
aVreducing
p618
aVsolid
p619
aVwaste
p620
aVcompany
p621
aVreceived
p622
aVwastewise
p623
aVrecognition
p624
aVyear
p625
aa(lp626
Vlos
p627
aVangeles
p628
aVcalifornia
p629
aVbrewery
p630
aVsignificantly
p631
aVreduced
p632
aVwaste
p633
aVoil
p634
aVdisposal
p635
aVusing
p636
aVhydraulic
p637
aVoil
p638
aVpurification
p639
aa(lp640
Vcompost
p641
aVwaste
p642
aa(lp643
Vrequired
p644
aVepa
p645
aVsuperfund
p646
aVamendment
p647
aVreauthorization
p648
aVact
p649
aVsara
p650
aVreport
p651
aVannually
p652
aVrelease
p653
aVtoxic
p654
aVchemical
p655
aVenvironment
p656
aa(lp657
Vimplemented
p658
aVprogram
p659
aVminimize
p660
aVuse
p661
aVozone
p662
aVdepleting
p663
aVchlorofluorocarbon
p664
aVcfc
p665
aVoperation
p666
aVbrewery
p667
aVuse
p668
aVammonia
p669
aVinstead
p670
aVcfc
p671
aVrefrigeration
p672
aVsystem
p673
aa(lp674
Vagricultural
p675
aVresource
p676
aVbari
p677
aVcontinues
p678
aVsuccessfully
p679
aVpilot
p680
aVheat
p681
aVtreatment
p682
aVrice
p683
aVmilling
p684
aVoperation
p685
aValternative
p686
aVuse
p687
aVmethyl
p688
aVbromide
p689
aVozone
p690
aVdepleting
p691
aVchemical
p692
aa(lp693
Vus
p694
aVtechnology
p695
aVadvance
p696
aVpurification
p697
aVsystem
p698
aVcap
p699
aVcapture
p700
aVgas
p701
aVearlier
p702
aVfermentation
p703
aVprocess
p704
aVfeasible
p705
aVaddition
p706
aVcap
p707
aVrecovers
p708
aVhigher
p709
aVquality
p710
aVgas
p711
aVincreased
p712
aVlevel
p713
aVreuse
p714
aa(lp715
Vcurrently
p716
aVconducting
p717
aVinventory
p718
aVghg
p719
aVemission
p720
aVfollowing
p721
aVguidance
p722
aVghg
p723
aVprotocol
p724
aVdeveloped
p725
aVworld
p726
aVresource
p727
aVinstitute
p728
aVworld
p729
aVbusiness
p730
aVcouncil
p731
aVsustainable
p732
aVdevelopment
p733
aa(lp734
Vconsistent
p735
aVcontrol
p736
aVprocess
p737
aa(lp738
Vautomation
p739
aa(lp740
Vrigorous
p741
aVattention
p742
aVmechanical
p743
aVvent
p744
aVinadvertently
p745
aVleft
p746
aVopen
p747
aa(lp748
Vsupplier
p749
aVdeliver
p750
aVtime
p751
aVorder
p752
aVminimize
p753
aVrelease
p754
aVstorage
p755
aa(lp756
Vlong
p757
aVcontinuous
p758
aVbrewing
p759
aVperiod
p760
aa(lp761
Vrecycled
p762
aVspent
p763
aVbrewer
p764
aVgrain
p765
aVcattle
p766
aVfeed
p767
aa(lp768
Vcompany
p769
aVhelped
p770
aVamerica
p771
aVbeautiful
p772
aa(lp773
Vjoined
p774
aVforce
p775
aVizaak
p776
aVwalton
p777
aVleague
p778
aVamerica
p779
aVinaugurate
p780
aVpitch
p781
aVcampaign
p782
aa(lp783
Vdeveloped
p784
aVguidebook
p785
aVestablishing
p786
aVcommunity
p787
aVlitter
p788
aVprevention
p789
aVeffort
p790
aVclosing
p791
aVlid
p792
aVlitter
p793
aVpartnership
p794
aVizaak
p795
aVwalton
p796
aVleague
p797
aVamerica
p798
aVamerica
p799
aVbeautiful
p800
aa(lp801
Vcommunicates
p802
aVpositive
p803
aVmessage
p804
aVrecycling
p805
aVlitter
p806
aVprevention
p807
aVvariety
p808
aVprint
p809
aVadvertisement
p810
aVencouraging
p811
aVpeople
p812
aVdispose
p813
aVwaste
p814
aVproperly
p815
aVsort
p816
aVrecycle
p817
aVpossible
p818
aa(lp819
Vrecycling
p820
aVpartner
p821
aVlocal
p822
aVrecyclers
p823
aVdistributor
p824
aVpromote
p825
aVevent
p826
aVrecycling
p827
aVvariety
p828
aVvenue
p829
aVincluding
p830
aVmusic
p831
aVfestival
p832
aVbeach
p833
aVvenue
p834
aVgolf
p835
aVtournament
p836
aVauto
p837
aVracing
p838
aVevent
p839
aa(lp840
Vaddition
p841
aVcompany
p842
aVpartnered
p843
aVleading
p844
aVbeverage
p845
aVproducer
p846
aVbeer
p847
aVsoft
p848
aVdrink
p849
aVwater
p850
aVindustry
p851
aVform
p852
aVbeverage
p853
aVpackaging
p854
aVenvironmental
p855
aVcouncil
p856
aVcouncil
p857
aVunited
p858
aVmission
p859
aVincrease
p860
aVbeverage
p861
aVcontainer
p862
aVrecycling
p863
aVinnovative
p864
aVcomprehensive
p865
aVlong
p866
aVterm
p867
aVsolution
p868
aVpartnership
p869
aa(lp870
Vseaworld
p871
aVgarden
p872
aVprovided
p873
aVstudent
p874
aVguest
p875
aVvariety
p876
aVconservation
p877
aVeducation
p878
aVprogram
p879
aVadventure
p880
aVcamp
p881
aVscene
p882
aVtour
p883
aVaddition
p884
aVpark
p885
aVrepresentative
p886
aVjoined
p887
aVforce
p888
aVdiverse
p889
aVgroup
p890
aVanimal
p891
aVambassador
p892
aVspread
p893
aVmessage
p894
aVconservation
p895
aVmillion
p896
aVpark
p897
aVguest
p898
aVtelevision
p899
aVviewer
p900
aVconsumer
p901
aa(lp902
Vnonprofit
p903
aVseaworld
p904
aVgarden
p905
aVconservation
p906
aVfund
p907
aVgranted
p908
aVfield
p909
aVconservation
p910
aVproject
p911
aVworld
p912
aVresearching
p913
aVrhino
p914
aVafrica
p915
aVprotecting
p916
aVcoral
p917
aVreef
p918
aVbelize
p919
aa(lp920
Vgarden
p921
aVlong
p922
aVcared
p923
aVendangered
p924
aVblack
p925
aVrhino
p926
aS'calf'
p927
aVsuccessfully
p928
aVborn
p929
aVraised
p930
aVpark
p931
aa(lp932
Vseaworld
p933
aVanimal
p934
aVrescue
p935
aVrehabilitation
p936
aVteam
p937
aa(lp938
Ventertainment
p939
aVcontinues
p940
aVlong
p941
aVstanding
p942
aVsupport
p943
aVwildlife
p944
aVprogram
p945
aVfinancial
p946
aVdonation
p947
aVtotaling
p948
aVmillion
p949
aVannually
p950
aVexpertise
p951
aVinvolvement
p952
aa(lp953
Vadventure
p954
aVpark
p955
aVsupport
p956
aVwork
p957
aVenvironmental
p958
aVorganization
p959
aVworld
p960
aa(lp961
Vlong
p962
aVstanding
p963
aVrelationship
p964
aVwildlife
p965
aVhabitat
p966
aVcouncil
p967
aVwhc
p968
aVcorporate
p969
aVwildlife
p970
aVhabitat
p971
aVcertification
p972
aVcorporate
p973
aVland
p974
aVlearning
p975
aVprogram
p976
aa(lp977
Vemployee
p978
aVvolunteered
p979
aVcountless
p980
aVhour
p981
aVwhc
p982
aVproject
p983
aVyear
p984
aa(lp985
Vfacility
p986
aVdesigned
p987
aVoperated
p988
aVaccommodate
p989
aVindigenous
p990
aVwildlife
p991
aVsite
p992
aVcartseville
p993
aVgeorgia
p994
aVbrewery
p995
aVsite
p996
aVassociated
p997
aVresource
p998
aVrecovery
p999
aVfarm
p1000
aVcertified
p1001
aVwildlife
p1002
aVhabitat
p1003
aVproviding
p1004
aVmixture
p1005
aVwooded
p1006
aVland
p1007
aVcleared
p1008
aVgrassland
p1009
aVscrubland
p1010
aVdeer
p1011
aVturkey
p1012
aVquail
p1013
aVbluebird
p1014
aa(lp1015
Vtotal
p1016
aVfacility
p1017
aVunderwent
p1018
aVenvironmental
p1019
aVaudit
p1020
aVnumber
p1021
aa(lp1022
Vcompany
p1023
aVcompleted
p1024
aVsenior
p1025
aVmanagement
p1026
aVchallenge
p1027
aVsafety
p1028
aVcampaign
p1029
aVstarted
p1030
aVset
p1031
aVprogressively
p1032
aVlower
p1033
aVgoal
p1034
aVyear
p1035
aa(lp1036
Vwholesaler
p1037
aVsafety
p1038
aVpartnership
p1039
aVprogram
p1040
aVhelp
p1041
aVindependent
p1042
aVwholesaler
p1043
aVimprove
p1044
aVemployee
p1045
aVfleet
p1046
aVproperty
p1047
aVsafety
p1048
aVinitiated
p1049
aVprogram
p1050
aVus
p1051
aVdistance
p1052
aVlearning
p1053
aVwebsite
p1054
aVcommunicate
p1055
aVwholesaler
p1056
aVwide
p1057
aVrange
p1058
aVsafety
p1059
aVissue
p1060
aa(lp1061
Vwholesaler
p1062
aVintegrated
p1063
aVlearning
p1064
aVprogram
p1065
aVdeliver
p1066
aVdistance
p1067
aVlearning
p1068
aVsatellite
p1069
aVnetwork
p1070
aVprivate
p1071
aVtelevision
p1072
aVnetwork
p1073
aVlinking
p1074
aVwholesaler
p1075
aVtraining
p1076
aVservice
p1077
aVworkplace
p1078
aVsafety
p1079
aVseries
p1080
aVair
p1081
aVprogram
p1082
aVaddress
p1083
aVvarious
p1084
aVaspect
p1085
aVsafety
p1086
aVrisk
p1087
aVmanagement
p1088
aVwholesaler
p1089
aVweb
p1090
aVsite
p1091
aVprovides
p1092
aVsafety
p1093
aVpartnership
p1094
aVinformation
p1095
aVinternet
p1096
aa(lp1097
Vemployee
p1098
aVspouse
p1099
aVvisit
p1100
aVpersonal
p1101
aVphysician
p1102
aVeligible
p1103
aVenter
p1104
aVdrawing
p1105
aVcompany
p1106
aVpaid
p1107
aVtrip
p1108
aVvalued
p1109
aVwinner
p1110
aVselected
p1111
aVyear
p1112
aVlocal
p1113
aVincentive
p1114
aVoffered
p1115
aVyear
p1116
aVencourage
p1117
aVparticipation
p1118
aa(lp1119
Vability
p1120
aVlife
p1121
aVafl
p1122
aVholistic
p1123
aVprogram
p1124
aVfocusing
p1125
aVemployee
p1126
aVfamily
p1127
aVemphasizing
p1128
aVpersonal
p1129
aVresponsibility
p1130
aVhealth
p1131
aVsafety
p1132
aa(lp1133
Vteam
p1134
aVmichelob
p1135
aVultra
p1136
aVst
p1137
aVlouis
p1138
aVmissouri
p1139
aVbike
p1140
aVteam
p1141
aVemployee
p1142
aVfriend
p1143
aVraised
p1144
aVpast
p1145
aVyear
p1146
aVgateway
p1147
aVarch
p1148
aVchapter
p1149
aVm
p1150
aVbike
p1151
aVriding
p1152
aVevent
p1153
aVbenefit
p1154
aVmultiple
p1155
aVsclerosis
p1156
aVsociety
p1157
aVevent
p1158
aVgroup
p1159
aVentered
p1160
aVrider
p1161
aVraised
p1162
aVlargest
p1163
aVdollar
p1164
aVsingle
p1165
aVteam
p1166
aa(lp1167
Vseventeen
p1168
aVemployee
p1169
aVteam
p1170
aVmichelob
p1171
aVultra
p1172
aVmerrimack
p1173
aVnew
p1174
aVhampshire
p1175
aVbrewery
p1176
aVparticipated
p1177
aVcigna
p1178
aVk
p1179
aVroad
p1180
aVrace
p1181
aVaugust
p1182
aVevent
p1183
aVbenefited
p1184
aVnew
p1185
aVhampshire
p1186
aVspecial
p1187
aVolympics
p1188
aa(lp1189
Vth
p1190
aVannual
p1191
aVst
p1192
aVlouis
p1193
aVrunning
p1194
aVkomen
p1195
aVrace
p1196
aVcure
p1197
aVtremendous
p1198
aVsuccess
p1199
aVnearly
p1200
aVparticipant
p1201
aVraising
p1202
aVmillion
p1203
aVnet
p1204
aVproceeds
p1205
aVsusan
p1206
aVg
p1207
aVkomen
p1208
aVbreast
p1209
aVcancer
p1210
aVfoundation
p1211
aa(lp1212
Vbike
p1213
aVmonth
p1214
aVprovides
p1215
aVchance
p1216
aVnew
p1217
aVexperienced
p1218
aVbicycle
p1219
aVrider
p1220
aVenjoy
p1221
aVvariety
p1222
aVclinic
p1223
aVbike
p1224
aVride
p1225
aVeducational
p1226
aVevent
p1227
aVdesigned
p1228
aVassist
p1229
aVencourage
p1230
aVbicycle
p1231
aVriding
p1232
aVfort
p1233
aVcollins
p1234
aVcolorado
p1235
aa(lp1236
Vbike
p1237
aVwork
p1238
aVday
p1239
aa(lp1240
Vsuperstar
p1241
aVcommunity
p1242
aVevent
p1243
aVfort
p1244
aVcollins
p1245
aVbusiness
p1246
aVform
p1247
aVcompany
p1248
aVteam
p1249
aVfun
p1250
aVcompetition
p1251
aa(lp1252
Vfacility
p1253
aVpark
p1254
aVinspection
p1255
aa(lp1256
Vspecial
p1257
aVfield
p1258
aVvisit
p1259
aa(lp1260
Vequipment
p1261
aVtesting
p1262
aVvalidation
p1263
aVpump
p1264
aVflow
p1265
aVtest
p1266
aVflow
p1267
aVtest
p1268
aVcity
p1269
aVwater
p1270
aVsupply
p1271
aVspecial
p1272
aVprotection
p1273
aVtest
p1274
aa(lp1275
Vhot
p1276
aVwork
p1277
aVcompliance
p1278
aVaudit
p1279
aa(lp1280
Vhigh
p1281
aVpiled
p1282
aVstorage
p1283
aVsprinkler
p1284
aVassessment
p1285
aa(lp1286
Vcapital
p1287
aVplant
p1288
aVfacility
p1289
aVproject
p1290
aVplan
p1291
aVreview
p1292
aa(lp1293
Vhazard
p1294
aVassessment
p1295
aVrisk
p1296
aVimprovement
p1297
aVinitiative
p1298
aa(lp1299
Vboiler
p1300
aVmachinery
p1301
aVsite
p1302
aVreview
p1303
aa(lp1304
Vjurisdictional
p1305
aVobject
p1306
aVcompliance
p1307
aVrate
p1308
aa(lp1309
Vinternal
p1310
aVboiler
p1311
aVinspection
p1312
aa(lp1313
Vammonia
p1314
aVprocess
p1315
aVhazard
p1316
aVreview
p1317
aa(lp1318
Vhurricane
p1319
aVwind
p1320
aVimpact
p1321
aS'analysis'
p1322
aa(lp1323
Vseismic
p1324
aVimpact
p1325
ag1322
aa(lp1326
Vfamily
p1327
aVtalk
p1328
aVdrinking
p1329
aVhelp
p1330
aVprevent
p1331
aVunderage
p1332
aVdrinking
p1333
aVencouraging
p1334
aVopen
p1335
aVhonest
p1336
aVcommunication
p1337
aVparent
p1338
aS'child'
p1339
aa(lp1340
Vserver
p1341
aVtraining
p1342
aVprogram
p1343
aVtrain
p1344
aVbartender
p1345
aVwaiter
p1346
aVstore
p1347
aVclerk
p1348
aVmethod
p1349
aVhelp
p1350
aVprevent
p1351
aValcohol
p1352
aVabuse
p1353
aVsituation
p1354
aVprevent
p1355
aVsale
p1356
aVminor
p1357
aa(lp1358
Vgood
p1359
aVsport
p1360
aVcommunication
p1361
aVtraining
p1362
aVfan
p1363
aVmanagement
p1364
aVprogram
p1365
aVdesigned
p1366
aVhelp
p1367
aVstadium
p1368
aVoperator
p1369
aVteam
p1370
aVowner
p1371
aVconcessionaire
p1372
aVaddress
p1373
aVprevent
p1374
aVproblem
p1375
aVdisruptive
p1376
aVcrowd
p1377
aVbehavior
p1378
aa(lp1379
Vdesignated
p1380
aVdriver
p1381
aVprogram
p1382
aVincluding
p1383
aVo
p1384
aVdoul
p1385
aVdesignated
p1386
aVdriver
p1387
aVprogram
p1388
aVpromote
p1389
aVuse
p1390
aVdesignated
p1391
aVdriver
p1392
aVbar
p1393
aVrestaurant
p1394
aVhome
p1395
aVparty
p1396
aVconsumer
p1397
aVtypically
p1398
aVreceive
p1399
aVfree
p1400
aVnon
p1401
aValcohol
p1402
aVbeverage
p1403
aVdiscount
p1404
aVfood
p1405
aVbar
p1406
aVrestaurant
p1407
aVexchange
p1408
aVnamed
p1409
aVdesignated
p1410
aVdriver
p1411
aVgroup
p1412
aVrefraining
p1413
aVdrinking
p1414
aVoccasion
p1415
aa(lp1416
Valert
p1417
aVcab
p1418
aVfight
p1419
aVdrunk
p1420
aVdriving
p1421
aVproviding
p1422
aVbar
p1423
aVrestaurant
p1424
aVpatron
p1425
aVfree
p1426
aVreduced
p1427
aVfare
p1428
aVcab
p1429
aVride
p1430
aVhome
p1431
aa(lp1432
Vsound
p1433
aVattitude
p1434
aVdesigned
p1435
aVhelp
p1436
aVmusic
p1437
aVentertainment
p1438
aVvenue
p1439
aVfacility
p1440
aVmanager
p1441
aVconcessionaire
p1442
aVpromote
p1443
aVpositive
p1444
aVfan
p1445
aVbehavior
p1446
aVencouraging
p1447
aVpersonal
p1448
aVresponsibility
p1449
aVrespect
p1450
aVfan
p1451
aVrespect
p1452
aVlaw
p1453
aa(lp1454
Vpay
p1455
aVfair
p1456
aVprice
p1457
aVcoffee
p1458
aVfarmer
p1459
aVsupplier
p1460
aa(lp1461
Vdonates
p1462
aVcharity
p1463
aa(lp1464
Vmeasure
p1465
aVelectricity
p1466
aVused
p1467
aVretail
p1468
aVspace
p1469
aa(lp1470
Vmeasure
p1471
aVwater
p1472
aVuse
p1473
aVretail
p1474
aVspace
p1475
aa(lp1476
Vhot
p1477
aVbeverage
p1478
aVcup
p1479
aVpost
p1480
aVconsumer
p1481
aVfiber
p1482
aa(lp1483
Vnew
p1484
aVstore
p1485
aVfeature
p1486
aVanti
p1487
aVslip
p1488
aVmat
p1489
aa(lp1490
Vbusiness
p1491
aVcertified
p1492
aVminority
p1493
aVwoman
p1494
aVowned
p1495
aVbusiness
p1496
aVu
p1497
aa(lp1498
Vboard
p1499
aVmember
p1500
aVinclude
p1501
aVmember
p1502
aVnon
p1503
aVwhite
p1504
aVethnicity
p1505
aVwoman
p1506
aa(lp1507
Vnutrition
p1508
aVroundtable
p1509
aVheld
p1510
aVoctober
p1511
aVexplore
p1512
aVhealth
p1513
aVwellness
p1514
aVissue
p1515
aVfood
p1516
aVindustry
p1517
aVimportant
p1518
aVoutcome
p1519
aVengagement
p1520
aVstarbucks
p1521
aVdecision
p1522
aVform
p1523
aVhealth
p1524
aVwellness
p1525
aVadvisory
p1526
aVpanel
p1527
aVfiscal
p1528
aa(lp1529
Vhosted
p1530
aVstakeholder
p1531
aVmeeting
p1532
aVgarner
p1533
aVfeedback
p1534
aVcsr
p1535
aVreport
p1536
aa(lp1537
Vrespect
p1538
aVhuman
p1539
aVright
p1540
aa(lp1541
Vfreedom
p1542
aVassociation
p1543
aVcollective
p1544
aVbargaining
p1545
aa(lp1546
Vforced
p1547
aVlabor
p1548
aa(lp1549
Vchild
p1550
aVlabor
p1551
aa(lp1552
Vdiscrimination
p1553
aa(lp1554
Vpay
p1555
aVpremium
p1556
aVfarmer
p1557
aVquality
p1558
aVcoffee
p1559
aa(lp1560
Vtrained
p1561
aVverifier
p1562
aVafrica
p1563
aVasia
p1564
aVpacific
p1565
aa(lp1566
Vsupplier
p1567
aVprovide
p1568
aVevidence
p1569
aVpayment
p1570
aVincluding
p1571
aVprice
p1572
aVpaid
p1573
aVfarmer
p1574
aa(lp1575
Vpurchase
p1576
aVseeking
p1577
aVimprove
p1578
aVpurchase
p1579
aVorganic
p1580
aVcoffee
p1581
aa(lp1582
Vpurchase
p1583
aVseeking
p1584
aVimprove
p1585
aVpurchase
p1586
aVfair
p1587
aVtrade
p1588
aVcertified
p1589
aVcoffee
p1590
aa(lp1591
Vpurchase
p1592
aVseeking
p1593
aVimprove
p1594
aVpurchase
p1595
aVconservation
p1596
aVshade
p1597
aVgrown
p1598
aVcoffeee
p1599
aa(lp1600
Vprovide
p1601
aVmoney
p1602
aVproducer
p1603
aVprovide
p1604
aVloan
p1605
aVfarmer
p1606
aa(lp1607
Vdonated
p1608
aVreflief
p1609
aVrebuilding
p1610
aVarea
p1611
aVravaged
p1612
aVnatural
p1613
aVdisaster
p1614
aVproduct
p1615
aVsourced
p1616
aa(lp1617
Vaudit
p1618
aVcocoa
p1619
aVfarm
p1620
aVsustainability
p1621
aa(lp1622
Vbeginning
p1623
aVshift
p1624
aVdairy
p1625
aVproduct
p1626
aVrbgh
p1627
aVfree
p1628
aa(lp1629
Vstandard
p1630
aVsocial
p1631
aVresponsibility
p1632
aVmanufactured
p1633
aVgood
p1634
aa(lp1635
Vpurchase
p1636
aVgood
p1637
aVlocal
p1638
aVbusiness
p1639
aa(lp1640
Vsite
p1641
aVstore
p1642
aVoverlooked
p1643
aVarea
p1644
aa(lp1645
Vsupport
p1646
aVcommunity
p1647
aVproject
p1648
aVsell
p1649
aVproduct
p1650
aa(lp1651
Vsupport
p1652
aVcommunity
p1653
aVproject
p1654
aVsource
p1655
aVproduct
p1656
aa(lp1657
Vprovides
p1658
aVrelief
p1659
aVrebuilding
p1660
aVfunding
p1661
aVarea
p1662
aVaffected
p1663
aVnatural
p1664
aVdisaster
p1665
aVsource
p1666
aa(lp1667
Vencourages
p1668
aVemployee
p1669
aVvolunteer
p1670
aa(lp1671
Vdonates
p1672
aVcharity
p1673
aVprogram
p1674
aVrequires
p1675
aVcontinuous
p1676
aVdonation
p1677
aa(lp1678
Vencouraging
p1679
aVcustomer
p1680
aVmake
p1681
aVcharitable
p1682
aVdonation
p1683
aa(lp1684
Vsupport
p1685
aVimprovement
p1686
aVlocal
p1687
aVarea
p1688
aVpark
p1689
aa(lp1690
Vadded
p1691
aVhealthy
p1692
aVoption
p1693
aVmenu
p1694
aa(lp1695
Vprovides
p1696
aVnutrition
p1697
aVinformation
p1698
aVstore
p1699
aa(lp1700
Vsound
p1701
aVtax
p1702
aVpolicy
p1703
aa(lp1704
Vsupport
p1705
aVtrade
p1706
aVagreement
p1707
aVpromote
p1708
aVtransparency
p1709
aVfair
p1710
aVcompetition
p1711
aa(lp1712
Vpurchased
p1713
aVwind
p1714
aVenergy
p1715
aVcertificate
p1716
aVoffset
p1717
aVenergy
p1718
aVused
p1719
ag1497
aVcanada
p1720
aa(lp1721
Vmonitor
p1722
aVmeasure
p1723
aVemission
p1724
aa(lp1725
Vcorrugated
p1726
aVhot
p1727
aVbeverage
p1728
aVsleeve
p1729
aVpercent
p1730
aVpost
p1731
aVconsumer
p1732
aVrecycled
p1733
aVfiber
p1734
aa(lp1735
Voffering
p1736
aVcustomer
p1737
aVdiscount
p1738
aVuse
p1739
aVreusable
p1740
aVcup
p1741
aa(lp1742
Vrequire
p1743
aVwood
p1744
aVused
p1745
aVmake
p1746
aVhardwood
p1747
aVfurniture
p1748
aVcertified
p1749
aVforest
p1750
aVstewardship
p1751
aVcouncil
p1752
aVfsc
p1753
aVnonprofit
p1754
aVorganization
p1755
aVensures
p1756
aVwood
p1757
aVproduced
p1758
aVsustainable
p1759
aVmanner
p1760
aa(lp1761
Vus
p1762
aVhigh
p1763
aVefficiency
p1764
aVlighting
p1765
aVstore
p1766
aa(lp1767
Vus
p1768
aVwater
p1769
aVefficient
p1770
aVfixture
p1771
aVstore
p1772
aa(lp1773
Vstore
p1774
aVrecycle
p1775
aVpossible
p1776
aa(lp1777
Vrecycles
p1778
aVcoffee
p1779
aVground
p1780
aa(lp1781
Vstore
p1782
aVparticipate
p1783
aVlocal
p1784
aVregional
p1785
aVrecycling
p1786
aVprogram
p1787
aa(lp1788
Vrecycled
p1789
aVold
p1790
aVmat
p1791
aa(lp1792
Vresponsible
p1793
aVwater
p1794
aVsourcing
p1795
aVprotocol
p1796
aa(lp1797
Vmember
p1798
aVsustainable
p1799
aVpackaging
p1800
aVcoalition
p1801
aa(lp1802
Vcontributes
p1803
aVreforestation
p1804
aVprogram
p1805
aa(lp1806
Vcontainer
p1807
aVrecycling
p1808
aVstore
p1809
aa(lp1810
Vsurvey
p1811
aVemployee
p1812
aVissue
p1813
aVresolve
p1814
aa(lp1815
Vincreased
p1816
aVwage
p1817
aVmajority
p1818
aVhourly
p1819
aVstore
p1820
aVpartner
p1821
ag1497
aVmarket
p1822
aa(lp1823
Vworking
p1824
aVimprove
p1825
aVonline
p1826
aVtool
p1827
aVconsolidate
p1828
aVpublication
p1829
aVappropriate
p1830
aa(lp1831
Vdesigning
p1832
aVglobal
p1833
aVlook
p1834
aVinternal
p1835
aVsourcing
p1836
aVstrategy
p1837
aVfilling
p1838
aVjob
p1839
aa(lp1840
Vallows
p1841
aVemployee
p1842
aVvoice
p1843
aVspecific
p1844
aVconcern
p1845
aa(lp1846
Vemployee
p1847
aVreceive
p1848
aVtotal
p1849
aVpay
p1850
aVpackage
p1851
aVincludes
p1852
aVrange
p1853
aVbenefit
p1854
aVincludes
p1855
aVmedical
p1856
aVdentale
p1857
aValternative
p1858
aVhealth
p1859
aVcare
p1860
aVcompany
p1861
aVstock
p1862
aa(lp1863
Vbenefit
p1864
aVvary
p1865
aVregion
p1866
aVaccomdoate
p1867
aVlocal
p1868
aVissue
p1869
aa(lp1870
Vreach
p1871
aVnewly
p1872
aVemployed
p1873
aVworker
p1874
aVanswer
p1875
aVquestion
p1876
aVhealth
p1877
aVcoverage
p1878
aa(lp1879
Vtake
p1880
aVproacive
p1881
aVrole
p1882
aVemployee
p1883
aVhealth
p1884
aVprogram
p1885
aVseek
p1886
aVprovide
p1887
aVtool
p1888
aVmonitor
p1889
aVimprove
p1890
aVhealth
p1891
aa(lp1892
Vrecognizes
p1893
aVemployee
p1894
aVappropriately
p1895
aVhard
p1896
aVwork
p1897
aVjob
p1898
aa(lp1899
Vsupport
p1900
aVemployee
p1901
aVsuffering
p1902
aVharsh
p1903
aVfinancial
p1904
aVsituation
p1905
aVresult
p1906
aVtragedy
p1907
aa(lp1908
Vtrain
p1909
aVemployee
p1910
aa(lp1911
Vmeasure
p1912
aVworkplace
p1913
aVdiversity
p1914
aa(lp1915
Vplant
p1916
aVtree
p1917
aVpark
p1918
aa(lp1919
Vcommitte
p1920
aVdedicated
p1921
aVsustainability
p1922
aVcompany
p1923
aa(lp1924
Vsurveyed
p1925
aVstakeholder
p1926
aVrespond
p1927
aVconcern
p1928
aa(lp1929
Valcohol
p1930
aVresponsibility
p1931
aVtraining
p1932
aVemployee
p1933
aa(lp1934
Vinternal
p1935
aVpolicy
p1936
aVregulation
p1937
aVaccordance
p1938
aVlaw
p1939
aVregulation
p1940
aa(lp1941
Vcommittee
p1942
aVdedicated
p1943
aVbest
p1944
aVpractice
p1945
aVbusiness
p1946
aa(lp1947
Vallows
p1948
aVemployee
p1949
aVvoice
p1950
aVspecific
p1951
aVconcern
p1952
aa(lp1953
Vreduce
p1954
aVunderage
p1955
aVdrinking
p1956
aVenforcement
p1957
aVcurrent
p1958
aVlaw
p1959
aVencouraging
p1960
aVgovernment
p1961
aVintroduce
p1962
aVenforce
p1963
aVminimum
p1964
aVpurchase
p1965
aVage
p1966
aa(lp1967
Vengage
p1968
aVmarketing
p1969
aVencourage
p1970
aVexcessive
p1971
aVirresponsible
p1972
aVconsumption
p1973
aa(lp1974
Vreduce
p1975
aVdrinking
p1976
aVdriving
p1977
aVcollaborating
p1978
aVgovernment
p1979
aVnon
p1980
aVgovernmental
p1981
aVorganization
p1982
aVeducate
p1983
aVenforce
p1984
aVexisting
p1985
aVlaw
p1986
aa(lp1987
Vfounding
p1988
aVmember
p1989
aVinternational
p1990
aVcenter
p1991
aValcohol
p1992
aVpolicy
p1993
aa(lp1994
Vass
p1995
aVwatershed
p1996
aVrisk
p1997
aVbrewery
p1998
aVworldwide
p1999
aa(lp2000
Vengage
p2001
aVgrower
p2002
aVwater
p2003
aVstewardship
p2004
aVactivity
p2005
aVmolson
p2006
aVcoors
p2007
aVgrower
p2008
aVgroup
p2009
aa(lp2010
Vencourages
p2011
aVemployee
p2012
aVconserve
p2013
aVwater
p2014
aa(lp2015
Vencourages
p2016
aVcustomer
p2017
aVconserve
p2018
aVwater
p2019
aa(lp2020
Vencourages
p2021
aVemployee
p2022
aVvolunteer
p2023
aa(lp2024
g1497
aVbrewery
p2025
aVcommunity
p2026
aVpartnership
p2027
aVpromote
p2028
aVwater
p2029
aVstewardship
p2030
aa(lp2031
Vsponsor
p2032
aVcarbon
p2033
aVdisclosure
p2034
aVwater
p2035
aVproject
p2036
aVdisclosure
p2037
aa(lp2038
Vcollaborates
p2039
aVcircle
p2040
aVblue
p2041
aVwork
p2042
aVprotect
p2043
aVpurity
p2044
aVwater
p2045
aVsource
p2046
aa(lp2047
Venergy
p2048
aVefficient
p2049
aVlighting
p2050
aa(lp2051
Vautomatic
p2052
aVlight
p2053
aa(lp2054
Vvariable
p2055
aVspeed
p2056
aVdrive
p2057
aVmotor
p2058
aa(lp2059
Voptimize
p2060
aVdistribution
p2061
aVvoltage
p2062
aVsite
p2063
aa(lp2064
Vupdated
p2065
aVheating
p2066
aVventilation
p2067
aVair
p2068
aVconditiong
p2069
aVsystem
p2070
aVsite
p2071
aVcanada
p2072
aa(lp2073
Vmonitor
p2074
aVmeasure
p2075
aVemission
p2076
aa(lp2077
Vcatch
p2078
aVcarbon
p2079
aVdioxide
p2080
aVreleased
p2081
aVfermentation
p2082
aVreuses
p2083
aVcarbonation
p2084
aa(lp2085
Vbrewing
p2086
aVbyproduct
p2087
aVused
p2088
aVcreate
p2089
aVmethane
p2090
aVfuel
p2091
aVboiler
p2092
aa(lp2093
Vspent
p2094
aVgrain
p2095
aVbarely
p2096
aVwheat
p2097
aVoat
p2098
aVsold
p2099
aVfarmer
p2100
aVlivestock
p2101
aVfeed
p2102
aVfertilizer
p2103
aa(lp2104
Vmake
p2105
aVdesign
p2106
aVpackaging
p2107
aVrecyclable
p2108
aa(lp2109
Vpackaging
p2110
aVrecycled
p2111
aVcontent
p2112
aa(lp2113
Vreported
p2114
aVcarbon
p2115
aVdisclosure
p2116
aVproject
p2117
aa(lp2118
Vsignatory
p2119
aVglobal
p2120
aVcompact
p2121
aa(lp2122
Vsurvey
p2123
aVemployee
p2124
aa(lp2125
Vprovides
p2126
aVopportunity
p2127
aVemployment
p2128
aVadvancement
p2129
aVwoman
p2130
aVcompany
p2131
aa(lp2132
Vprovide
p2133
aVopportunity
p2134
aVemployment
p2135
aVadvancement
p2136
aVmulticultural
p2137
aVethnicity
p2138
aVcompany
p2139
aa(lp2140
Vsignificant
p2141
aVbenefit
p2142
aVemployee
p2143
aa(lp2144
Voffer
p2145
aVfitness
p2146
aVcenter
p2147
aVemployee
p2148
aa(lp2149
Voffer
p2150
aVdiagnostic
p2151
aVtesting
p2152
aVemployee
p2153
aa(lp2154
Voffer
p2155
aVrisk
p2156
aVassessment
p2157
aVemployee
p2158
aa(lp2159
Voffer
p2160
aVtailored
p2161
aVhealth
p2162
aVimprovement
p2163
aVprogram
p2164
aVemployee
p2165
aa(lp2166
Vcover
p2167
aVpreventative
p2168
aVcare
p2169
aVmedical
p2170
aVinsurance
p2171
aa(lp2172
Vteam
p2173
aVsafety
p2174
aa(lp2175
Vinvest
p2176
aVpretax
p2177
aVprofit
p2178
aVcommunity
p2179
aa(lp2180
Vteam
p2181
aVbuilding
p2182
aVactivity
p2183
aVbenefit
p2184
aVcommunity
p2185
aa(lp2186
Vstandard
p2187
aVcode
p2188
aVconduct
p2189
aVsupplier
p2190
aa(lp2191
Vcoffee
p2192
aVpartner
p2193
aVquality
p2194
aVearns
p2195
aVpremium
p2196
aVprice
p2197
aVsubstantially
p2198
aVhigher
p2199
aVmarket
p2200
aVprice
p2201
aVfair
p2202
aVtrade
p2203
aVcertified
p2204
aVprice
p2205
aa(lp2206
Vsupport
p2207
aVtechnoserve
p2208
aVempowering
p2209
aVpeople
p2210
aVpoor
p2211
aVrural
p2212
aVarea
p2213
aVbusiness
p2214
aVtraining
p2215
aa(lp2216
Vsupport
p2217
aVkimssa
p2218
aVkidane
p2219
aVmehret
p2220
aVself
p2221
aVhelp
p2222
aVassociation
p2223
aa(lp2224
Vsupported
p2225
aVbutterfly
p2226
aVschool
p2227
aa(lp2228
Vcoffee
p2229
aVkid
p2230
aa(lp2231
Vground
p2232
aVhealth
p2233
aa(lp2234
Vheat
p2235
aVexchange
p2236
aVtechnology
p2237
aVrecovers
p2238
aVroasting
p2239
aVheat
p2240
aVresulting
p2241
aVnatural
p2242
aVgas
p2243
aVused
p2244
aa(lp2245
Vuse
p2246
aVnatural
p2247
aVlight
p2248
aVlatest
p2249
aVlighting
p2250
aVtechnology
p2251
aVreduces
p2252
aVenergy
p2253
aVuse
p2254
aa(lp2255
Venvironmentally
p2256
aVsensitive
p2257
aVhigh
p2258
aVefficiency
p2259
aVhvac
p2260
aVsystem
p2261
aVreduce
p2262
aVgreenhouse
p2263
aVgas
p2264
aVemission
p2265
aa(lp2266
Vwater
p2267
aVefficient
p2268
aVlandscaping
p2269
aVhigh
p2270
aVefficiency
p2271
aVirrigation
p2272
aVreduces
p2273
aVwater
p2274
aVusage
p2275
aa(lp2276
Vrecycled
p2277
aVmaterial
p2278
aVused
p2279
aVmulch
p2280
aVincluding
p2281
aVcoffee
p2282
aVchaff
p2283
aVproduct
p2284
aVroasting
p2285
aa(lp2286
Vconstruction
p2287
aVmaterial
p2288
aVcame
p2289
aVlocal
p2290
aVregional
p2291
aVsource
p2292
aa(lp2293
Vconstruction
p2294
aVwaste
p2295
aVdiverted
p2296
aVlandfill
p2297
aVrecycling
p2298
aVconstruction
p2299
aa(lp2300
Vpay
p2301
aVworker
p2302
aVminimum
p2303
aVwage
p2304
aa(lp2305
Vfreedom
p2306
aVassociation
p2307
aVcollective
p2308
aVbargaining
p2309
aa(lp2310
Vfair
p2311
aVwork
p2312
aVhour
p2313
aa(lp2314
Vprovides
p2315
aVhealthcare
p2316
aVemployee
p2317
aa(lp2318
Velkhill
p2319
aVpay
p2320
aVbonus
p2321
aVannual
p2322
aVpaid
p2323
aVleave
p2324
aVworkman
p2325
aVcompensation
p2326
aVmaternity
p2327
aVretirement
p2328
aVbenefit
p2329
aa(lp2330
Vprovides
p2331
aVdaycare
p2332
aVworker
p2333
aa(lp2334
Vprovides
p2335
aVscholarship
p2336
aVworker
p2337
aVstudent
p2338
aa(lp2339
Vcreated
p2340
aVsustainability
p2341
aVsteering
p2342
aVcommittee
p2343
aVcalled
p2344
aVproject
p2345
ag249
ag249
aVd
p2346
aVsocial
p2347
aVenvironmental
p2348
aVeconomic
p2349
aVdevelopment
p2350
aa(lp2351
Vestablished
p2352
aVteam
p2353
aVemployee
p2354
aVcreate
p2355
aVinternal
p2356
aVchange
p2357
aVcompany
p2358
aa(lp2359
Vraphael
p2360
aVhouse
p2361
aVdomestic
p2362
aVviolence
p2363
aVagency
p2364
aVdedicated
p2365
aVending
p2366
aVintimate
p2367
aVpartner
p2368
aVviolence
p2369
aVsupport
p2370
aVraphael
p2371
aVhouse
p2372
aVquarterly
p2373
aVdonation
p2374
aVfund
p2375
aVraising
p2376
aVevent
p2377
aVadditionally
p2378
aVdonate
p2379
aVcoffee
p2380
aVnon
p2381
aVprofit
p2382
aVincluding
p2383
aVstreet
p2384
aVroot
p2385
aVnonprofit
p2386
aVnewspaper
p2387
aVhelp
p2388
aVpeople
p2389
aVexperiencing
p2390
aVhomelessness
p2391
aa(lp2392
Vpartnered
p2393
aVcoffee
p2394
aVkid
p2395
aVcharity
p2396
aVwork
p2397
aVimprove
p2398
aVeducation
p2399
aVhealth
p2400
aVcare
p2401
aVeconomic
p2402
aVdiversification
p2403
aVfood
p2404
aVsecurity
p2405
aVcoffee
p2406
aVfarmer
p2407
aVlaitn
p2408
aVamerica
p2409
aa(lp2410
Vpartnered
p2411
aVmercy
p2412
aVcorp
p2413
aVwork
p2414
aVimprove
p2415
aVcondition
p2416
aVfailing
p2417
aVstate
p2418
aVlike
p2419
aVsomalia
p2420
aVzimbabwe
p2421
aVconflict
p2422
aVzone
p2423
aVlike
p2424
aVafghanistan
p2425
aVcongo
p2426
aViraq
p2427
aVcountry
p2428
aVendured
p2429
aVnatural
p2430
aVdisaster
p2431
aVlike
p2432
aVindonesia
p2433
aVpakistan
p2434
aVhaiti
p2435
aa(lp2436
Vencourages
p2437
aVemployee
p2438
aVvolunteer
p2439
aa(lp2440
Vpurchase
p2441
aVorganic
p2442
aVcoffee
p2443
aa(lp2444
Vpurchase
p2445
aVdirect
p2446
aVtrade
p2447
aVcoffee
p2448
aa(lp2449
Vpurchase
p2450
aVfair
p2451
aVtrade
p2452
aVcertified
p2453
aVcoffee
p2454
aa(lp2455
Vfounder
p2456
aVglobal
p2457
aVcoffee
p2458
aVquality
p2459
aVresearch
p2460
aVinitiative
p2461
aVstrives
p2462
aVimprove
p2463
aVcoffee
p2464
aVquality
p2465
aVglobal
p2466
aVscale
p2467
aa(lp2468
Vfunded
p2469
aVscaa
p2470
aVsustainability
p2471
aVtracking
p2472
aVreporting
p2473
aVtool
p2474
aVstart
p2475
aVcollect
p2476
aVsustainability
p2477
aVdata
p2478
aa(lp2479
Vmonitor
p2480
aVmeasure
p2481
aVemission
p2482
aa(lp2483
Vus
p2484
aVenergy
p2485
aVefficient
p2486
aVelectronics
p2487
aVappliance
p2488
aa(lp2489
Vautomatic
p2490
aVlight
p2491
aa(lp2492
Venforced
p2493
aVcompany
p2494
aVwide
p2495
aVpower
p2496
aVmanagement
p2497
aVsetting
p2498
aVsave
p2499
aVelectricity
p2500
aa(lp2501
Vrewritten
p2502
aVplant
p2503
aVshut
p2504
aVprocedure
p2505
aVsave
p2506
aVenergy
p2507
aa(lp2508
Vrecycle
p2509
aVrecyclable
p2510
aVmaterial
p2511
aVcardboard
p2512
aVglass
p2513
aVmetal
p2514
aVplastic
p2515
aVpaper
p2516
aVwood
p2517
aVadded
p2518
aVoffice
p2519
aVrecycling
p2520
aa(lp2521
Vjoint
p2522
aVtask
p2523
aVforce
p2524
aVcreated
p2525
aVseparation
p2526
aVprocedure
p2527
aVplant
p2528
aa(lp2529
Vnearly
p2530
aVeliminated
p2531
aVpaper
p2532
aVcup
p2533
aVoffice
p2534
aVarea
p2535
aa(lp2536
Vcommunity
p2537
aVoutreach
p2538
aVpartner
p2539
aVrepurpose
p2540
aVburlap
p2541
aVbag
p2542
aa(lp2543
Vencourages
p2544
aVemployee
p2545
aVexplore
p2546
aValternative
p2547
aVtransportation
p2548
aVmethod
p2549
aVincluding
p2550
aVbiking
p2551
aVpublic
p2552
aVtransportation
p2553
aVcar
p2554
aVpooling
p2555
aVend
p2556
aVgoal
p2557
aVreducing
p2558
aVcar
p2559
aVroad
p2560
aa(lp2561
Vdonates
p2562
aVsupport
p2563
aVcoffee
p2564
aVgrower
p2565
aVquality
p2566
aVlife
p2567
aa(lp2568
Vdonates
p2569
aVcoffee
p2570
aVmerchandise
p2571
aVlocal
p2572
aVcommunity
p2573
aa(lp2574
Vmandatory
p2575
aVpower
p2576
aVmanagement
p2577
aVsetting
p2578
aVcomputer
p2579
aa(lp2580
Vcompost
p2581
aVwaste
p2582
aa(lp2583
Voffered
p2584
aVcompostable
p2585
aVcup
p2586
aVcustomer
p2587
aa(lp2588
Vcommenced
p2589
aVmonth
p2590
aValternative
p2591
aVtransportation
p2592
aVday
p2593
aa(lp2594
Vpurchase
p2595
aVrenewable
p2596
aVenergy
p2597
aVcredit
p2598
aa(lp2599
Veliminated
p2600
aVwater
p2601
aVcooler
p2602
aVoffice
p2603
aa(lp2604
Vduplexing
p2605
aVduplex
p2606
aVprinting
p2607
aa(lp2608
Vtransitioned
p2609
aVrecycled
p2610
aVoffice
p2611
aVpaper
p2612
aVbox
p2613
aa(lp2614
Vus
p2615
aVgreen
p2616
aVcleaning
p2617
aVproduct
p2618
aa(lp2619
Vcode
p2620
aVconduct
p2621
aVstandard
p2622
aVsupplier
p2623
aa(lp2624
g1497
aVpurchase
p2625
aVorder
p2626
aVadhere
p2627
aVcode
p2628
aa(lp2629
Vlaunched
p2630
aVcocoalink
p2631
aa(lp2632
Vpromotes
p2633
aVeducation
p2634
aa(lp2635
Vchild
p2636
aVlabor
p2637
aa(lp2638
Vfacility
p2639
aVcertified
p2640
aVgfsi
p2641
aVhighest
p2642
aVlevel
p2643
aVsafe
p2644
aVquality
p2645
aVfood
p2646
aVlevel
p2647
aVcertification
p2648
aa(lp2649
Vhost
p2650
aVtrack
p2651
aVfield
p2652
aVmeet
p2653
aa(lp2654
Vsupport
p2655
aVwest
p2656
aVafrica
p2657
aVcocoa
p2658
aVlivelihood
p2659
aVprogram
p2660
aa(lp2661
Vminimize
p2662
aVuse
p2663
aVpaper
p2664
aa(lp2665
Veducate
p2666
aVemployee
p2667
aVrecycling
p2668
aa(lp2669
Venergy
p2670
aVefficient
p2671
aVlighting
p2672
aa(lp2673
Vcompressed
p2674
aVair
p2675
aVimprovement
p2676
aVhvac
p2677
aVenhancement
p2678
aa(lp2679
Vbiogas
p2680
aVrecovery
p2681
aa(lp2682
Vboilerstack
p2683
aVeconomizer
p2684
aVproject
p2685
aa(lp2686
Vreduce
p2687
aVwater
p2688
aVusage
p2689
aVchiller
p2690
aVboiler
p2691
aa(lp2692
Vus
p2693
aVproduct
p2694
aVrecycled
p2695
aVreused
p2696
aVreclaimed
p2697
aVsalvaged
p2698
aVcontent
p2699
aa(lp2700
Vrecycles
p2701
aVwaste
p2702
aa(lp2703
Voperating
p2704
aVplant
p2705
aVhershey
p2706
aVchocolate
p2707
aVworld
p2708
aVattraction
p2709
aVzwl
p2710
aa(lp2711
Vinstalled
p2712
aVwalking
p2713
aVstanding
p2714
aVdesk
p2715
aVcommon
p2716
aVarea
p2717
aVoffice
p2718
aa(lp2719
Vfitness
p2720
aVcenter
p2721
aa(lp2722
Vhire
p2723
aVveteran
p2724
aa(lp2725
Vsupport
p2726
aVethnically
p2727
aVdiverse
p2728
aVpotential
p2729
aVemployee
p2730
aa(lp2731
Vachieved
p2732
aVperfect
p2733
aVscore
p2734
aVhuman
p2735
aVright
p2736
aVcampaign
p2737
aVcorporate
p2738
aVequality
p2739
aVindex
p2740
aa(lp2741
Vsurvey
p2742
aVemployee
p2743
aa(lp2744
Vdonate
p2745
aVcharity
p2746
aa(lp2747
Vencourages
p2748
aVemployee
p2749
aVvolunteer
p2750
aa(lp2751
Vninety
p2752
aVpercent
p2753
aVtotal
p2754
aVspending
p2755
aVraw
p2756
aVmaterial
p2757
aVfreight
p2758
aVpackaging
p2759
aVmaterial
p2760
aVenergy
p2761
aVform
p2762
aVdiscretionary
p2763
aVspending
p2764
aVlocal
p2765
aVsupplier
p2766
aa(lp2767
Vrecyclable
p2768
aVcaseless
p2769
aVjug
p2770
aVpackaging
p2771
aa(lp2772
Vus
p2773
aVanaerobic
p2774
aVdigester
p2775
aa(lp2776
Vmodern
p2777
aVenergy
p2778
aVefficient
p2779
aVboiler
p2780
aVenergy
p2781
aVefficient
p2782
aa(lp2783
Vdistinct
p2784
aVgiving
p2785
aVprogram
p2786
aVcorporate
p2787
aVcontribution
p2788
aVprogram
p2789
aVsupport
p2790
aVspecific
p2791
aVproject
p2792
aVbetter
p2793
aVcommunity
p2794
aVemployee
p2795
aVmatching
p2796
aVgift
p2797
aVprogram
p2798
aVproduct
p2799
aVdonation
p2800
aVprogram
p2801
aa(lp2802
Vestablish
p2803
aVcomprehensive
p2804
aVfarm
p2805
aVanimal
p2806
aVassessment
p2807
aVtool
p2808
aa(lp2809
Vdairy
p2810
aVcow
p2811
aVspecific
p2812
aVdiet
p2813
aVformulated
p2814
aVprofessional
p2815
aVnutritioniststo
p2816
aVmatch
p2817
aVneed
p2818
aVhealth
p2819
aVmilk
p2820
aVproduction
p2821
aVodor
p2822
aVreduction
p2823
aa(lp2824
Vfarmer
p2825
aVmethane
p2826
aVdigester
p2827
aVhelp
p2828
aVoffset
p2829
aVodor
p2830
aVseparating
p2831
aVmethane
p2832
aVgas
p2833
aVsolid
p2834
aVwaste
p2835
aVsolid
p2836
aVwaste
p2837
aVcomposted
p2838
aVreused
p2839
aVfertilizer
p2840
aVmethane
p2841
aVgas
p2842
aVused
p2843
aVheat
p2844
aVgenerate
p2845
aVelectricity
p2846
aVused
p2847
aVpower
p2848
aVfarm
p2849
aVsold
p2850
aVutility
p2851
aVcompany
p2852
aa(lp2853
Vfeed
p2854
aVcow
p2855
aVproduce
p2856
aVcrop
p2857
aa(lp2858
Vus
p2859
aVtreated
p2860
aVwastewater
p2861
aVirrigate
p2862
aVcrop
p2863
aa(lp2864
Vprevents
p2865
aVtreated
p2866
aVwastewater
p2867
aVentering
p2868
aVlocal
p2869
aVwater
p2870
aVsource
p2871
aa(lp2872
Vdairy
p2873
aVcow
p2874
aVfed
p2875
aVforage
p2876
aVgrass
p2877
aVhay
p2878
aVsilage
p2879
aVproductsof
p2880
aVhuman
p2881
aVfoodproduction
p2882
aVprocess
p2883
aa(lp2884
Vhousing
p2885
aVfacility
p2886
aVfrequently
p2887
aVcleaned
p2888
aVmanure
p2889
aVmechanical
p2890
aVscraping
p2891
aVwash
p2892
aVwater
p2893
aa(lp2894
Vstore
p2895
aVmanure
p2896
aVfacility
p2897
aVcalled
p2898
aVlagoon
p2899
aVdesigned
p2900
aVstored
p2901
aVsafely
p2902
aVused
p2903
aVnutrientsource
p2904
aVapplication
p2905
aVcroplands
p2906
aa(lp2907
Vcompost
p2908
aVused
p2909
aVbedding
p2910
aa(lp2911
Vconduct
p2912
aVenergy
p2913
aVaudit
p2914
aVplant
p2915
aa(lp2916
Vembrace
p2917
aVemployee
p2918
aVinvolvement
p2919
aVcontinuous
p2920
aVimprovement
p2921
aVvisual
p2922
aVproduction
p2923
aVmeeting
p2924
aVvpm
p2925
aVvpm
p2926
aVprocess
p2927
aVallows
p2928
aVplant
p2929
aVemployee
p2930
aVparticipate
p2931
aVproblem
p2932
aVidentification
p2933
aVproblem
p2934
aVsolving
p2935
aa(lp2936
Vdeveloped
p2937
aVaudit
p2938
aVprocess
p2939
aVensure
p2940
aVplant
p2941
aVcomplying
p2942
aVvpm
p2943
aVguideline
p2944
aa(lp2945
Vmilk
p2946
aVdelivered
p2947
aVcustomer
p2948
aVtraditional
p2949
aVmilk
p2950
aVcase
p2951
aa(lp2952
Vnew
p2953
aVpackage
p2954
aVdesign
p2955
aVentirely
p2956
aVeliminates
p2957
aVnecessity
p2958
aVuse
p2959
aVplastic
p2960
aVmilk
p2961
aVcase
p2962
aVdistribution
p2963
aa(lp2964
Veliminate
p2965
aVneed
p2966
aVcardboard
p2967
aVbox
p2968
aVsecondary
p2969
aVpackaging
p2970
aa(lp2971
Vus
p2972
aVcow
p2973
aVwater
p2974
aVwater
p2975
aVevaporated
p2976
aVmilk
p2977
aVproduction
p2978
aVsanitation
p2979
aVpurpose
p2980
aa(lp2981
Vus
p2982
aVtruck
p2983
aVgreater
p2984
aVhauling
p2985
aVcapacity
p2986
aa(lp2987
Vus
p2988
aVenergy
p2989
aVefficient
p2990
aVrefrigeration
p2991
aVunit
p2992
aa(lp2993
Vreduced
p2994
aVengine
p2995
aVidle
p2996
aVtime
p2997
aa(lp2998
Vplaced
p2999
aVboard
p3000
aVcomputer
p3001
aVtractor
p3002
aVprovide
p3003
aVcontinuous
p3004
aVdriver
p3005
aVfeedback
p3006
aVmpg
p3007
aa(lp3008
Vpurchased
p3009
aVultra
p3010
aVlight
p3011
aVtractor
p3012
aa(lp3013
Vset
p3014
aVspeed
p3015
aVgovernor
p3016
aVmaximum
p3017
aVmph
p3018
aa(lp3019
Vset
p3020
aVtractor
p3021
aVengine
p3022
aVminute
p3023
aVidling
p3024
aVshut
p3025
aa(lp3026
Vplaced
p3027
aVauxiliary
p3028
aVpower
p3029
aVunit
p3030
aVapus
p3031
aVtractor
p3032
aVpower
p3033
aVcab
p3034
aVlayover
p3035
aa(lp3036
Vpurchased
p3037
aVaerodynamic
p3038
aVvehicle
p3039
aa(lp3040
Venergy
p3041
aVefficient
p3042
aVautomatic
p3043
aVtransmission
p3044
aa(lp3045
Vchange
p3046
aVfuel
p3047
aVfilter
p3048
aVmonthly
p3049
aVinstead
p3050
aVmile
p3051
aa(lp3052
Vcheck
p3053
aVtire
p3054
aVair
p3055
aVpressure
p3056
aVdaily
p3057
aa(lp3058
Vinitiated
p3059
aVchain
p3060
aVremoval
p3061
aVprogram
p3062
aVeffective
p3063
aVspring
p3064
aVfall
p3065
aVsaving
p3066
aVpound
p3067
aVweight
p3068
aVvehicle
p3069
aa(lp3070
Vuse
p3071
aVrail
p3072
aVline
p3073
aVreciprocal
p3074
aVswitching
p3075
aVcapability
p3076
aa(lp3077
Vcustomer
p3078
aVrail
p3079
aVwork
p3080
aVdevelop
p3081
aVtrans
p3082
aVload
p3083
aVprogram
p3084
aa(lp3085
Vuse
p3086
aVintermodal
p3087
aVcontainer
p3088
aVpossible
p3089
aa(lp3090
Vsource
p3091
aVsmall
p3092
aVbusiness
p3093
aVapplicable
p3094
aa(lp3095
Vredesigned
p3096
aVcap
p3097
aVlighter
p3098
aVplastic
p3099
aVjug
p3100
aa(lp3101
Vspends
p3102
aVsmall
p3103
aVbusiness
p3104
aVwoman
p3105
aVowned
p3106
aVbusiness
p3107
aVminority
p3108
aVowned
p3109
aVbusiness
p3110
aVveteran
p3111
aVowned
p3112
aVbusiness
p3113
aa(lp3114
Vpurchase
p3115
aVcorrugated
p3116
aVmaterial
p3117
aVsustainable
p3118
aVforest
p3119
aVinitiative
p3120
aVsfi
p3121
aVcertified
p3122
aVsupplier
p3123
aa(lp3124
Vfat
p3125
aVlevel
p3126
aVflavored
p3127
aVsingle
p3128
aVserve
p3129
aVmilk
p3130
aVlowered
p3131
aa(lp3132
Vadded
p3133
aVfiber
p3134
aVprobiotic
p3135
aVpectin
p3136
aVbased
p3137
aVyogurt
p3138
aa(lp3139
Vsugar
p3140
aVlevel
p3141
aVyogurt
p3142
aVlowered
p3143
aVsucrose
p3144
aVreplacing
p3145
aVhigh
p3146
aVfructose
p3147
aVcorn
p3148
aVsyrup
p3149
aa(lp3150
Vlactose
p3151
aVfree
p3152
aVmilk
p3153
aa(lp3154
Vprobiotic
p3155
aVadded
p3156
aVcottage
p3157
aVcheese
p3158
aVsour
p3159
aVcream
p3160
aa(lp3161
Vsponsor
p3162
aVcommunity
p3163
aVsporting
p3164
aVactivity
p3165
aVevent
p3166
aa(lp3167
Vstriving
p3168
aVattract
p3169
aVfemale
p3170
aVminority
p3171
aVcompany
p3172
aVrecruiting
p3173
aVeffort
p3174
aVutilizing
p3175
aVcommunity
p3176
aVoutreach
p3177
aVtargeted
p3178
aVuniversity
p3179
aVrecruiting
p3180
aVprogram
p3181
aa(lp3182
Vdiscrimination
p3183
aa(lp3184
Vtrain
p3185
aVemployee
p3186
aa(lp3187
Vemployee
p3188
aVreceive
p3189
aVyearly
p3190
aVsafety
p3191
aVtraining
p3192
aa(lp3193
Voffer
p3194
aVdental
p3195
aVvision
p3196
aVsurgery
p3197
aVpaid
p3198
aVtime
p3199
ag1179
aVholiday
p3200
aVtransportation
p3201
aVsubsidy
p3202
aVtuition
p3203
aVreimbursement
p3204
aVemployee
p3205
aVassistance
p3206
aVeligible
p3207
aVemployee
p3208
aa(lp3209
Vprocessed
p3210
aVchlorine
p3211
aVfree
p3212
aVtotally
p3213
aVchlorine
p3214
aVfree
p3215
aVpcf
p3216
aVtcf
p3217
aa(lp3218
Vprocessed
p3219
aVchlorine
p3220
aVfree
p3221
aVtotally
p3222
aVchlorine
p3223
aVfree
p3224
aVpcf
p3225
aVtcf
p3226
aa(lp3227
Vpost
p3228
aVconsumer
p3229
aVrecycled
p3230
aVpaper
p3231
aa(lp3232
Vpost
p3233
aVconsumer
p3234
aVrecycled
p3235
aVpaper
p3236
aa(lp3237
Vpost
p3238
aVconsumer
p3239
aVrecycled
p3240
aVpaper
p3241
aa(lp3242
Vdevelop
p3243
aVproduct
p3244
aVline
p3245
aVusing
p3246
aVpaper
p3247
aVagricultural
p3248
aVbyproduct
p3249
aa(lp3250
Vdevelop
p3251
aVproduct
p3252
aVline
p3253
aVusing
p3254
aVpaper
p3255
aVagricultural
p3256
aVbyproduct
p3257
aa(lp3258
Vdevelop
p3259
aVproduct
p3260
aVline
p3261
aVusing
p3262
aVpaper
p3263
aVagricultural
p3264
aVbyproduct
p3265
aa(lp3266
Vinked
p3267
aVrecycled
p3268
aa(lp3269
Vinked
p3270
aVrecycled
p3271
aa(lp3272
Vdiversity
p3273
aVforum
p3274
aVfocus
p3275
aVgroup
p3276
aa(lp3277
Vemployee
p3278
aVtraining
p3279
aa(lp3280
Vworkforce
p3281
aVsurvey
p3282
aa(lp3283
Veconomic
p3284
aVcharitable
p3285
aVpartnership
p3286
aa(lp3287
Vface
p3288
aVface
p3289
aVmeeting
p3290
aVsupplier
p3291
aa(lp3292
Vsupplier
p3293
aVsurvey
p3294
aa(lp3295
Vadhers
p3296
aVlocal
p3297
aVlaw
p3298
aa(lp3299
Vethic
p3300
aVtraining
p3301
aa(lp3302
Vforced
p3303
aVlabor
p3304
aa(lp3305
Vchild
p3306
aVlabor
p3307
aa(lp3308
Vfreedom
p3309
aVassociation
p3310
aVcollective
p3311
aVbargaining
p3312
aa(lp3313
Voverharvest
p3314
aVforest
p3315
aa(lp3316
Vproduct
p3317
aVprocessing
p3318
aVtree
p3319
aVpaper
p3320
aVsource
p3321
aVrenewable
p3322
aVenergy
p3323
aVprovide
p3324
aVapproximately
p3325
aVpercent
p3326
aVpower
p3327
aVmill
p3328
aa(lp3329
Voffer
p3330
aVrecycled
p3331
aVfiber
p3332
aVpaper
p3333
aa(lp3334
Vmake
p3335
aVdesign
p3336
aVproduct
p3337
aVrecyclable
p3338
aa(lp3339
Voffer
p3340
aVmixed
p3341
aVnew
p3342
aVrecycled
p3343
aVfiber
p3344
aVpaper
p3345
aa(lp3346
Vpackaging
p3347
aVrange
p3348
aVus
p3349
aVpercent
p3350
aVplastic
p3351
aa(lp3352
Vusing
p3353
aVingeo
p3354
aVplastic
p3355
aVplant
p3356
aVbased
p3357
aVplastic
p3358
aValternative
p3359
aVfossil
p3360
aVbased
p3361
aVplastic
p3362
aVcoating
p3363
aVcup
p3364
aa(lp3365
Vclima
p3366
aVseries
p3367
aVmoisture
p3368
aVresistant
p3369
aVpackaging
p3370
aVoffer
p3371
aVrecyclable
p3372
aValternative
p3373
aVpetroleumbased
p3374
aVwax
p3375
aVbarrier
p3376
aVuse
p3377
aVmeat
p3378
aVpoultry
p3379
aVagricultural
p3380
aVproduce
p3381
aa(lp3382
Vreplaced
p3383
aVtraditional
p3384
aVpetroleumbased
p3385
aVresin
p3386
aVpotato
p3387
aVstarch
p3388
aVcreate
p3389
aVrecyclable
p3390
aVcompostable
p3391
aVbiodegradable
p3392
aValternative
p3393
aa(lp3394
Vtree
p3395
aVgrowing
p3396
aVprogram
p3397
aVandhra
p3398
aVpradesh
p3399
aVindia
p3400
aVprovides
p3401
aVemployment
p3402
aVlocal
p3403
aVcommunity
p3404
aVconsistent
p3405
aVsource
p3406
aVincome
p3407
aVten
p3408
aVthousand
p3409
aVsmall
p3410
aVlandowner
p3411
aVfamily
p3412
aVmaking
p3413
aVuse
p3414
aVabandoned
p3415
aVdegraded
p3416
aVland
p3417
aVprovide
p3418
aVrevenue
p3419
aa(lp3420
Vcompany
p3421
aVprovides
p3422
aVcommunity
p3423
aVsupport
p3424
aVvarious
p3425
aVactivity
p3426
aVhelping
p3427
aVeducation
p3428
aVrural
p3429
aVschoolchildren
p3430
aVsponsoring
p3431
aVmobile
p3432
aVmedical
p3433
aVservice
p3434
aVimproving
p3435
aVavailability
p3436
aVdrinking
p3437
aVwater
p3438
aa(lp3439
Vreport
p3440
aVimpact
p3441
aVforestry
p3442
aVoperation
p3443
aVforest
p3444
aVfootprint
p3445
aVdisclosure
p3446
aVffd
p3447
aVproject
p3448
aa(lp3449
Vconverted
p3450
aVeucalyptus
p3451
aVplantation
p3452
aVnatural
p3453
aVforest
p3454
aa(lp3455
Vmajority
p3456
aVsodium
p3457
aVhydrosulfide
p3458
aVused
p3459
aVmill
p3460
aVsulfur
p3461
aVrecovered
p3462
aVair
p3463
aVemission
p3464
aVcontrol
p3465
aVdevice
p3466
aVoil
p3467
aVrefinery
p3468
aVlarge
p3469
aVsulfuric
p3470
aVacid
p3471
aVsourced
p3472
aVmining
p3473
aVcompany
p3474
aVbyproduct
p3475
aVmetal
p3476
aVsmelting
p3477
aa(lp3478
Vselect
p3479
aVlocal
p3480
aVsupplier
p3481
aVpossible
p3482
aVcut
p3483
aVnumber
p3484
aVmile
p3485
aVtransported
p3486
aa(lp3487
Vanalyze
p3488
aVsupply
p3489
aVchain
p3490
aVminimize
p3491
aVshipping
p3492
aVmile
p3493
aVsupplier
p3494
aVnetwork
p3495
aVbox
p3496
aVplant
p3497
aa(lp3498
Vmill
p3499
aVuse
p3500
aVhigh
p3501
aVefficiency
p3502
aVcombined
p3503
aVheat
p3504
aVpower
p3505
aVchp
p3506
aVsystem
p3507
aVgenerate
p3508
aVthermal
p3509
aVenergy
p3510
aVelectricity
p3511
aVneed
p3512
aa(lp3513
Vmeasure
p3514
aVmonitor
p3515
aVemission
p3516
aa(lp3517
Vprocess
p3518
aVwater
p3519
aVdiverted
p3520
aVmile
p3521
aVlong
p3522
aVpipeline
p3523
aVacre
p3524
aVperdido
p3525
aVbay
p3526
aVwetland
p3527
aVflowed
p3528
aVevenly
p3529
aVsite
p3530
aVallowing
p3531
aVnatural
p3532
aVvegetation
p3533
aVtree
p3534
aVtreat
p3535
aVwater
p3536
aVremoving
p3537
aVnutrient
p3538
aVapplying
p3539
aVtreated
p3540
aVwater
p3541
aVwetland
p3542
aVecological
p3543
aVvalue
p3544
aVincreased
p3545
aVwater
p3546
aVquality
p3547
aVimproved
p3548
aa(lp3549
Vuse
p3550
aVlocal
p3551
aVregional
p3552
aVdistribution
p3553
aVcenter
p3554
aVreduce
p3555
aVdistance
p3556
aVstoring
p3557
aVproduct
p3558
aVcloser
p3559
aVcustomer
p3560
aa(lp3561
Vcompleted
p3562
aVyear
p3563
aVlife
p3564
aVinitiative
p3565
aVhelp
p3566
aVfocus
p3567
aVeliminating
p3568
aVfatality
p3569
aVinjury
p3570
aa(lp3571
Vprovide
p3572
aVincentive
p3573
aVparticipation
p3574
aVhealthy
p3575
aVlife
p3576
aVactivity
p3577
aVreduction
p3578
aVmedical
p3579
aVinsurance
p3580
aVpremium
p3581
aa(lp3582
Vbegan
p3583
aVfocusing
p3584
aVimproving
p3585
aVproportion
p3586
aVethnic
p3587
aVminority
p3588
aVwoman
p3589
aVspecific
p3590
aVfunction
p3591
aVmanufacturing
p3592
aVsale
p3593
ag1497
aVtraditionally
p3594
aVlarge
p3595
aVproportion
p3596
aVwhite
p3597
aVmale
p3598
aVworking
p3599
aa(lp3600
Vencourages
p3601
aVemployee
p3602
aVvolunteer
p3603
aa(lp3604
S'employ'
p3605
aS'dozen'
p3606
aS'employee'
p3607
aS'philz'
p3608
aS'roasting'
p3609
aS'location'
p3610
aa(lp3611
S'produce'
p3612
aS'purchased'
p3613
aS'delivered'
p3614
aS'daily'
p3615
aS'maximum'
p3616
aS'result'
p3617
aa(lp3618
S'strip'
p3619
aS'test'
p3620
aS'analyze'
p3621
aS'protein'
p3622
aS'expressed'
p3623
aS'dna'
p3624
aS'important'
p3625
aS'place'
p3626
aS'production'
p3627
aS'rapid'
p3628
aS'site'
p3629
aS'method'
p3630
aS'gmo'
p3631
aS'screening'
p3632
aa(lp3633
S'catch'
p3634
aS'level'
p3635
aS'continually'
p3636
aS'maintain'
p3637
aS'high'
p3638
aS'productivity'
p3639
aS'target'
p3640
aS'population'
p3641
aS'associated'
p3642
aS'ecological'
p3643
aS'community'
p3644
aS'relative'
p3645
aS'potential'
p3646
aS'productivity'
p3647
aa(lp3648
S'philz'
p3649
aS'employee'
p3650
aS'get'
p3651
aS'free'
p3652
aS'philz'
p3653
aS'mug'
p3654
aS'use'
p3655
aS'instead'
p3656
aS'paper'
p3657
aS'cup'
p3658
aa(lp3659
S'recycle'
p3660
aS'recyclable'
p3661
aS'material'
p3662
aS'cardboard'
p3663
aS'glass'
p3664
aS'metal'
p3665
aS'plastic'
p3666
aS'paper'
p3667
aS'wood'
p3668
aa(lp3669
S'used'
p3670
aS'leed'
p3671
aS'certified'
p3672
aS'recycled'
p3673
aS'material'
p3674
aS'lounge'
p3675
aS'e'
p3676
aS'g'
p3677
aS'bar'
p3678
aS'countertop'
p3679
aS'entirely'
p3680
aS'recycled'
p3681
aS'glass'
p3682
aS'wall'
p3683
aS'covered'
p3684
aS'environmentally'
p3685
aS'sustainable'
p3686
aS'richlite'
p3687
aS'major'
p3688
aS'design'
p3689
aS'effect'
p3690
aS'lit'
p3691
aS'glass'
p3692
aS'bottle'
p3693
aS'wall'
p3694
aS'recycled'
p3695
aS'strauss'
p3696
aS'milk'
p3697
aS'bottle'
p3698
aa(lp3699
S'pcr'
p3700
aS'polymerase'
p3701
aS'chain'
p3702
aS'reaction'
p3703
aS'test'
p3704
aS'method'
p3705
aS'analyzes'
p3706
aS'dna'
p3707
aS'directly'
p3708
aS'conducted'
p3709
aS'laboratory'
p3710
aS'pcr'
p3711
aS'recognized'
p3712
aS'sensitive'
p3713
aS'reliable'
p3714
aS'gmo'
p3715
aS'test'
p3716
aS'method'
p3717
aS'pcr'
p3718
aS'industry'
p3719
aS'standard'
p3720
aS'used'
p3721
aS'worldwide'
p3722
aS'verify'
p3723
aS'contract'
p3724
aS'ensure'
p3725
aS'regulatory'
p3726
aS'compliance'
p3727
aS'validate'
p3728
aS'non'
p3729
aS'gmo'
p3730
aS'claim'
p3731
aa(lp3732
S'cup'
p3733
aS'try'
p3734
aS'printing'
p3735
aS'minimum'
p3736
aS'opting'
p3737
aS'digital'
p3738
aS'information'
p3739
aS'use'
p3740
aS'recycled'
p3741
aS'paper'
p3742
aS'twice'
p3743
aa(lp3744
S'cattle'
p3745
aS'feed'
p3746
aS'graze'
p3747
aS'cow'
p3748
aS'supposed'
p3749
aS'eat'
p3750
aS'native'
p3751
aS'sustainable'
p3752
aS'california'
p3753
aS'grass'
p3754
aS'retain'
p3755
aS'strict'
p3756
aS'control'
p3757
aS'condition'
p3758
aS'feed'
p3759
aS'awa'
p3760
aS'certified'
p3761
aS'humane'
p3762
aS'treatment'
p3763
aS'animal'
p3764
aS'entire'
p3765
aS'process'
p3766
aa(lp3767
S'olive'
p3768
aS'oil'
p3769
aS'certified'
p3770
aS'extra'
p3771
aS'virgin'
p3772
aS'california'
p3773
aS'olive'
p3774
aS'oil'
p3775
aS'council'
p3776
aa(lp3777
S'recycle'
p3778
aS'leaf'
p3779
aS'litter'
p3780
aS'generated'
p3781
aS'shade'
p3782
aS'tree'
p3783
aa(lp3784
S'water'
p3785
aS'fixture'
p3786
aS'automatic'
p3787
aS'control'
p3788
aS'water'
p3789
aS'user'
p3790
aS'sensed'
p3791
aS'waste'
p3792
aS'event'
p3793
aS'left'
p3794
aS'open'
p3795
aa(lp3796
S'lead'
p3797
aS'trophic'
p3798
aS'cascade'
p3799
aS'ecosystem'
p3800
aS'state'
p3801
aS'change'
p3802
aS'fishing'
p3803
aS'operation'
p3804
aS'allow'
p3805
aS'maintenance'
p3806
aS'structure'
p3807
aS'productivity'
p3808
aS'function'
p3809
aS'diversity'
p3810
aS'ecosystem'
p3811
aa(lp3812
S'pret'
p3813
aS'coffee'
p3814
aS'organic'
p3815
aS'yonks'
p3816
aS'year'
p3817
aS'independent'
p3818
aS'coffee'
p3819
aS'farmer'
p3820
aS'met'
p3821
aS'couldn'
p3822
aS'afford'
p3823
aS'buy'
p3824
aS'fertiliser'
p3825
aS'pesticide'
p3826
aS'd'
p3827
aS'wanted'
p3828
aS'little'
p3829
aS'educaiton'
p3830
aS'good'
p3831
aS'farmign'
p3832
aS'practice'
p3833
aS'careful'
p3834
aS'pruning'
p3835
aS'farmer'
p3836
aS'sustainable'
p3837
aS'organic'
p3838
aS'harvest'
p3839
aS'year'
p3840
aS'year'
p3841
aa(lp3842
S'paper'
p3843
aS'fsc'
p3844
aS'certified'
p3845
aa(lp3846
S'domestic'
p3847
aS'industrial'
p3848
aS'waste'
p3849
aS'rejected'
p3850
aS'product'
p3851
aS'construction'
p3852
aS'debris'
p3853
aS'rubble'
p3854
aS'soil'
p3855
aS'stone'
p3856
aS'excavation'
p3857
aS'rubbish'
p3858
aS'cleaning'
p3859
aS'land'
p3860
aS'material'
p3861
aa(lp3862
S'forget'
p3863
aS'treat'
p3864
aS'pooch'
p3865
aS'cuppie'
p3866
aS'chilling'
p3867
aS'calming'
p3868
aS'herb'
p3869
aS'pup'
p3870
aS'patio'
p3871
aa(lp3872
S'power'
p3873
aS'supply'
p3874
aS'computer'
p3875
aS'server'
p3876
aS'greater'
p3877
aS'energy'
p3878
aS'efficient'
p3879
aS'rated'
p3880
aS'load'
p3881
aS'true'
p3882
aS'power'
p3883
aS'factor'
p3884
aS'greater'
p3885
aa(lp3886
S'bring'
p3887
aS'variety'
p3888
aS'professional'
p3889
aS'provide'
p3890
aS'customer'
p3891
aS'store'
p3892
aS'educational'
p3893
aS'presentation'
p3894
aS'local'
p3895
aS'grower'
p3896
aS'california'
p3897
aS'olive'
p3898
aS'oil'
p3899
aS'council'
p3900
aS'cooc'
p3901
aS'representative'
p3902
aS'health'
p3903
aS'expert'
p3904
aS'chef'
p3905
aS'expert'
p3906
aS'olive'
p3907
aS'store'
p3908
aS'company'
p3909
aS'primary'
p3910
aS'sponsor'
p3911
aS'california'
p3912
aS'largest'
p3913
aS'olive'
p3914
aS'festival'
p3915
aS'paso'
p3916
aS'roble'
p3917
aS'olive'
p3918
aS'festival'
p3919
aS'cooc'
p3920
aS'taught'
p3921
aS'sensory'
p3922
aS'awareness'
p3923
aS'class'
p3924
aa(lp3925
S'location'
p3926
aS'offer'
p3927
aS'service'
p3928
aS'deli'
p3929
aS'kitchen'
p3930
aS'team'
p3931
aS'chef'
p3932
aS'busy'
p3933
aS'creating'
p3934
aS'natural'
p3935
aS'scratch'
p3936
aS'restaurant'
p3937
aS'quality'
p3938
aS'food'
p3939
aS'world'
p3940
aa(lp3941
S'setting'
p3942
aS'catch'
p3943
aS'level'
p3944
aS'maintain'
p3945
aS'target'
p3946
aS'population'
p3947
aS'ecological'
p3948
aS'community'
p3949
aS'high'
p3950
aS'productivity'
p3951
aS'relative'
p3952
aS'potential'
p3953
aS'productivity'
p3954
aS'account'
p3955
aS'non'
p3956
aS'target'
p3957
aS'specie'
p3958
aS'size'
p3959
aS'age'
p3960
aS'sex'
p3961
aS'captured'
p3962
aS'landed'
p3963
aS'association'
p3964
aS'consequence'
p3965
aS'fishing'
p3966
aS'target'
p3967
aS'specie'
p3968
aS'b'
p3969
aS'identifying'
p3970
aS'appropriate'
p3971
aS'fishing'
p3972
aS'method'
p3973
aS'minimise'
p3974
aS'adverse'
p3975
aS'impact'
p3976
aS'habitat'
p3977
aS'especially'
p3978
aS'critical'
p3979
aS'sensitive'
p3980
aS'zone'
p3981
aS'spawning'
p3982
aS'nursery'
p3983
aS'area'
p3984
aS'c'
p3985
aS'providing'
p3986
aS'recovery'
p3987
aS'rebuilding'
p3988
aS'depleted'
p3989
aS'fish'
p3990
aS'population'
p3991
aS'specified'
p3992
aS'level'
p3993
aS'specified'
p3994
aS'time'
p3995
aS'frame'
p3996
ag3827
aS'mechanism'
p3997
aS'place'
p3998
aS'limit'
p3999
aS'close'
p4000
aS'fishery'
p4001
aS'designated'
p4002
aS'catch'
p4003
aS'limit'
p4004
aS'reached'
p4005
ag3676
aS'establishing'
p4006
aS'zone'
p4007
aS'appropriate'
p4008
aa(lp4009
S'coffee'
p4010
aS'ground'
p4011
aS'given'
p4012
aS'free'
p4013
aS'customer'
p4014
aS'requesting'
p4015
aS'donate'
p4016
aS'coffee'
p4017
aS'ground'
p4018
aS'root'
p4019
aS'grow'
p4020
aS'organic'
p4021
aS'mushroom'
p4022
aS'sold'
p4023
aS'food'
p4024
aa(lp4025
S'created'
p4026
aS'separation'
p4027
aS'procedure'
p4028
aS'facility'
p4029
aS'store'
p4030
aa(lp4031
S'cup'
p4032
aS'separate'
p4033
aS'bin'
p4034
aS'cup'
p4035
aS'staff'
p4036
aS'patron'
p4037
aS'separate'
p4038
aS'trash'
p4039
aS'recyclables'
p4040
aa(lp4041
S'committed'
p4042
aS'supportingnon'
p4043
aS'profit'
p4044
aS'organization'
p4045
aS'aid'
p4046
aS'art'
p4047
aS'environment'
p4048
aS'action'
p4049
aS'sport'
p4050
aS'independent'
p4051
aS'music'
p4052
aS'continuing'
p4053
aS'cultivate'
p4054
aS'awareness'
p4055
aS'promote'
p4056
aS'southern'
p4057
aS'california'
p4058
aS'vibrant'
p4059
aS'growing'
p4060
aS'craft'
p4061
aS'beer'
p4062
aS'community'
p4063
aa(lp4064
S'eco'
p4065
aS'friendly'
p4066
aS'practice'
p4067
aS'consist'
p4068
aS'using'
p4069
aS'paper'
p4070
aS'partial'
p4071
aS'percentage'
p4072
aS'paper'
p4073
aS'post'
p4074
aS'consumer'
p4075
aS'product'
p4076
aa(lp4077
S'minimize'
p4078
aS'negative'
p4079
aS'visual'
p4080
aS'impact'
p4081
aS'reduce'
p4082
aS'drift'
p4083
aS'agrochemicals'
p4084
aS'dust'
p4085
aS'substance'
p4086
aS'coming'
p4087
aS'agricultural'
p4088
aS'processing'
p4089
aS'activity'
p4090
aa(lp4091
S'cow'
p4092
aS'born'
p4093
aS'raised'
p4094
aS'vibrant'
p4095
aS'oak'
p4096
aS'lined'
p4097
aS'pasture'
p4098
aS'meadow'
p4099
aS'palomar'
p4100
aS'mountain'
p4101
aa(lp4102
S'paper'
p4103
aS'waste'
p4104
aS'get'
p4105
aS'recycled'
p4106
aa(lp4107
S'cleaning'
p4108
aS'agent'
p4109
aS'used'
p4110
aS'wine'
p4111
aS'making'
p4112
aS'process'
p4113
aS'msut'
p4114
aS'reported'
p4115
aS'ecolabel'
p4116
aa(lp4117
S'recovery'
p4118
aS'rebuilding'
p4119
aS'allowed'
p4120
aS'occur'
p4121
aS'specified'
p4122
aS'level'
p4123
aS'consistent'
p4124
aS'precautionary'
p4125
aS'approach'
p4126
aS'ability'
p4127
aS'population'
p4128
aS'produce'
p4129
aS'long'
p4130
aS'term'
p4131
aS'potential'
p4132
aS'yield'
p4133
aS'specified'
p4134
aS'time'
p4135
aS'frame'
p4136
aa(lp4137
S'test'
p4138
aa(lp4139
S'support'
p4140
aS'bean'
p4141
aS'supplier'
p4142
aS'different'
p4143
aS'coffee'
p4144
aS'growing'
p4145
aS'region'
p4146
aS'world'
p4147
aa(lp4148
S'recycle'
p4149
aS'coffee'
p4150
aS'chaff'
p4151
aS'organic'
p4152
aS'product'
p4153
aS'roasting'
p4154
aS'process'
p4155
aS'giving'
p4156
aS'local'
p4157
aS'organic'
p4158
aS'farmer'
p4159
aS'used'
p4160
aS'nitrogen'
p4161
aS'rich'
p4162
aS'soil'
p4163
aS'amendment'
p4164
aa(lp4165
S'use'
p4166
aS'mug'
p4167
aS'charged'
p4168
aS'small'
p4169
aS'phlls'
p4170
aS'using'
p4171
aS'cup'
p4172
aS'charged'
p4173
aS'small'
p4174
aa(lp4175
S'milk'
p4176
aS'served'
p4177
aS'reusable'
p4178
aS'straus'
p4179
aS'milk'
p4180
aS'bottle'
p4181
aa(lp4182
S'word'
p4183
aS'check'
p4184
aS'pedigree'
p4185
aS'certified'
p4186
aS'american'
p4187
aS'grassfed'
p4188
aS'animal'
p4189
aS'welfare'
p4190
aS'approved'
p4191
aS'association'
p4192
aa(lp4193
S'local'
p4194
aS'ingredient'
p4195
aS'local'
p4196
aS'supplier'
p4197
aS'social'
p4198
aS'governance'
p4199
aS'supplier'
p4200
aS'relation'
p4201
aa(lp4202
S've'
p4203
aS'created'
p4204
aS'bite'
p4205
aS'sized'
p4206
aS'doggie'
p4207
aS'treat'
p4208
aS'high'
p4209
aS'quality'
p4210
aS'ingredient'
p4211
ag3827
aS'expect'
p4212
aS'cup'
p4213
aS'dog'
p4214
aS'friendly'
p4215
aa(lp4216
S'waste'
p4217
aS'reduced'
p4218
aS'used'
p4219
aS'recycled'
p4220
aS'properly'
p4221
aS'disposed'
p4222
aS'authorised'
p4223
aS'facility'
p4224
aa(lp4225
S'energy'
p4226
aS'resource'
p4227
aS'used'
p4228
aS'lowest'
p4229
aS'practical'
p4230
aS'site'
p4231
aS'current'
p4232
aS'technology'
p4233
aS'sale'
p4234
aS'unit'
p4235
aa(lp4236
S'cleaning'
p4237
aS'product'
p4238
aS'environmentally'
p4239
aS'responsible'
p4240
aS'non'
p4241
aS'toxic'
p4242
aS'non'
p4243
aS'chlorine'
p4244
aS'based'
p4245
aS'carcinogen'
p4246
aS'free'
p4247
aa(lp4248
S'minimal'
p4249
aS'impact'
p4250
aS'biological'
p4251
aS'diversity'
p4252
aa(lp4253
S'cup'
p4254
aS'try'
p4255
aS'printing'
p4256
aS'minimum'
p4257
aS'opting'
p4258
aS'digital'
p4259
aS'information'
p4260
aa(lp4261
S'legal'
p4262
aS'compliance'
p4263
aS'environmental'
p4264
aS'consent'
p4265
aS'applicable'
p4266
aS'plan'
p4267
aS'rule'
p4268
aS'successful'
p4269
aS'enforcement'
p4270
aS'action'
p4271
aS'government'
p4272
aS'environmental'
p4273
aS'agency'
p4274
aS'past'
p4275
aS'month'
p4276
aa(lp4277
S'reduce'
p4278
aS'loss'
p4279
aS'nutrient'
p4280
aS'negative'
p4281
aS'impact'
p4282
aS'water'
p4283
aS'body'
p4284
aa(lp4285
S'creating'
p4286
aS'sense'
p4287
aS'community'
p4288
aS'local'
p4289
aS'food'
p4290
aS'lerache'
p4291
aS'pressing'
p4292
aS'goal'
p4293
aa(lp4294
S'possible'
p4295
aS'paper'
p4296
aS'printed'
p4297
aS'incorrectly'
p4298
aS'rare'
p4299
aS'get'
p4300
aS'converted'
p4301
aS'recycled'
p4302
aS'notepad'
p4303
aS'sell'
p4304
aS'cost'
p4305
aa(lp4306
S'include'
p4307
aS'emission'
p4308
aS'entire'
p4309
aS'life'
p4310
aS'cycle'
p4311
aS'stage'
p4312
aa(lp4313
S'consistent'
p4314
aS'coffee'
p4315
aS'harvest'
p4316
aS'sustianable'
p4317
aS'farmign'
p4318
aS'practice'
p4319
aS'deliver'
p4320
aS'coffee'
p4321
aS'taste'
p4322
aS'better'
p4323
aS'incredibly'
p4324
aS'important'
p4325
aS'better'
p4326
aS'tasting'
p4327
aS'coffee'
p4328
aS'profitable'
p4329
aS'farmer'
p4330
aS'building'
p4331
aS'long'
p4332
aS'term'
p4333
aS'relationship'
p4334
aS'helping'
p4335
aS'farmer'
p4336
aS'secure'
p4337
aS'livelihood'
p4338
aS'protect'
p4339
aS'land'
p4340
aS'farm'
p4341
aS'future'
p4342
aS'generation'
p4343
aa(lp4344
S'eco'
p4345
aS'home'
p4346
aS'label'
p4347
aS'tell'
p4348
aS'consumer'
p4349
aS'product'
p4350
aS'contains'
p4351
aS'certain'
p4352
aS'harmful'
p4353
aS'chemical'
p4354
aS'creates'
p4355
aS'low'
p4356
aS'impact'
p4357
aS'environment'
p4358
aa(lp4359
S'certify'
p4360
aS'certify'
p4361
aS'claim'
p4362
aS'life'
p4363
aS'cycle'
p4364
aS'impact'
p4365
aS'product'
p4366
aS'reduced'
p4367
aS'result'
p4368
aS'implemented'
p4369
aS'change'
p4370
aS'product'
p4371
aS'based'
p4372
aS'previous'
p4373
aS'lca'
p4374
aS'data'
p4375
aa(lp4376
S'refusing'
p4377
aS'reducing'
p4378
aS'use'
p4379
aS'product'
p4380
aS'actual'
p4381
aS'potential'
p4382
aS'negative'
p4383
aS'impact'
p4384
aS'environment'
p4385
aS'human'
p4386
aS'health'
p4387
aS'reusing'
p4388
aS'recycling'
p4389
aS'waste'
p4390
aa(lp4391
S'pesticide'
p4392
aS'fertilizer'
p4393
aS'irrigation'
p4394
aS'practice'
p4395
aS'reported'
p4396
aS'ecolabel'
p4397
aa(lp4398
S'minimise'
p4399
aS'contaminant'
p4400
aS'discharge'
p4401
aS'air'
p4402
aS'land'
p4403
aS'freshwater'
p4404
aS'sea'
p4405
aa(lp4406
S'chemical'
p4407
aS'residue'
p4408
aS'comply'
p4409
aS'industry'
p4410
aS'government'
p4411
aS'standard'
p4412
aa(lp4413
S'inspection'
p4414
aS'held'
p4415
aS'ecolabel'
p4416
aS'ensure'
p4417
aS'vineyard'
p4418
aS'winery'
p4419
aS'upholds'
p4420
aS'ecolabel'
p4421
aS'standard'
p4422
aa(lp4423
S'positively'
p4424
aS'impact'
p4425
aS'environmental'
p4426
aS'health'
p4427
aS'multiple'
p4428
aS'geographic'
p4429
aS'scale'
p4430
aS'including'
p4431
aS'individual'
p4432
aS'property'
p4433
aS'community'
p4434
aS'ecoregions'
p4435
aa(lp4436
S'help'
p4437
aS'contribute'
p4438
aS'fight'
p4439
aS'breast'
p4440
aS'cancer'
p4441
aS'purchase'
p4442
aS'cup'
p4443
aS'cure'
p4444
aS'signature'
p4445
aS'merchandise'
p4446
aS'donation'
p4447
aS'susan'
p4448
ag3677
aS'komen'
p4449
aS'foundation'
p4450
aS'purchase'
p4451
aS'support'
p4452
aS'ronald'
p4453
aS'mcdonald'
p4454
aS'house'
p4455
aS'charity'
p4456
aS'purchase'
p4457
aS'love'
p4458
aS'cup'
p4459
aS'donation'
p4460
aS'charity'
p4461
aS'purchase'
p4462
aS'custom'
p4463
aS'created'
p4464
aS'cup'
p4465
aa(lp4466
S'offer'
p4467
aS'best'
p4468
aS'best'
p4469
aS'hormone'
p4470
aS'antibiotic'
p4471
aS'free'
p4472
aS'meat'
p4473
aS'produce'
p4474
aa(lp4475
S'neat'
p4476
aS'straight'
p4477
aS'line'
p4478
aS'coffee'
p4479
aS'bush'
p4480
aS'growing'
p4481
aS'sun'
p4482
aS'baked'
p4483
aS'soil'
p4484
aS'coffee'
p4485
aS'harvested'
p4486
aS'mountainside'
p4487
aS'plant'
p4488
aS'hiding'
p4489
aS'tree'
p4490
aS'rainforest'
p4491
aa(lp4492
S'lean'
p4493
aS'green'
p4494
aS'program'
p4495
aS'sustainable'
p4496
aS'packaging'
p4497
aS'offer'
p4498
aS'comprehensive'
p4499
aS'alternative'
p4500
aS'use'
p4501
aS'non'
p4502
aS'degradable'
p4503
aS'plastic'
p4504
aS'packaging'
p4505
aS'product'
p4506
aS'program'
p4507
aS'renewable'
p4508
aS'sustainable'
p4509
aS'compostable'
p4510
aS'biodegradable'
p4511
aa(lp4512
S'energy'
p4513
aS'consumption'
p4514
aS'fuel'
p4515
aS'source'
p4516
aS'reported'
p4517
aS'ecolabel'
p4518
aa(lp4519
S'perfect'
p4520
aS'extraction'
p4521
aS'gram'
p4522
aS'coffee'
p4523
aS'second'
p4524
aS'degree'
p4525
aS'ml'
p4526
aS'specially'
p4527
aS'filtered'
p4528
aS'water'
p4529
aS'remarkable'
p4530
aS'espresso'
p4531
aS'water'
p4532
aS'taking'
p4533
aS'away'
p4534
aS'farmer'
p4535
aS'roaster'
p4536
aS'baristas'
p4537
aa(lp4538
S'compliance'
p4539
aS'legal'
p4540
aS'requirement'
p4541
aS'successful'
p4542
aS'enforcement'
p4543
aS'action'
p4544
aS'government'
p4545
aS'health'
p4546
aS'safety'
p4547
aS'agency'
p4548
aS'past'
p4549
aS'month'
p4550
aa(lp4551
S'canopy'
p4552
aS'provides'
p4553
aS'habitat'
p4554
aS'rich'
p4555
aS'thousand'
p4556
aS'insect'
p4557
aS'animal'
p4558
aS'root'
p4559
aS'tree'
p4560
aS'stop'
p4561
aS'soil'
p4562
aS'eroding'
p4563
aS'rain'
p4564
aa(lp4565
S'free'
p4566
aS'volatile'
p4567
aS'chemical'
p4568
aS'compound'
p4569
aa(lp4570
S'hot'
p4571
aS'drink'
p4572
aS'cup'
p4573
aS'recycled'
p4574
aS'material'
p4575
aa(lp4576
S'working'
p4577
aS'local'
p4578
aS'artisan'
p4579
aS'market'
p4580
aS'product'
p4581
aS'olive'
p4582
aS'brand'
p4583
aa(lp4584
S'entire'
p4585
aS'menu'
p4586
aS'free'
p4587
aS'trans'
p4588
aS'fat'
p4589
aa(lp4590
S'effort'
p4591
aS'stay'
p4592
aS'perfectly'
p4593
aS'organic'
p4594
aS'chose'
p4595
aS'best'
p4596
aS'quality'
p4597
aS'produce'
p4598
aS'locally'
p4599
aS'grown'
p4600
aS'source'
p4601
aS'wise'
p4602
aS'ranch'
p4603
aS'jr'
p4604
aS'organic'
p4605
aS'sage'
p4606
aS'mountain'
p4607
aS'farm'
p4608
aa(lp4609
S'use'
p4610
aS'cup'
p4611
aS'biodegradabe'
p4612
aS'material'
p4613
aa(lp4614
S'year'
p4615
aS've'
p4616
aS'grown'
p4617
aS'proper'
p4618
aS'size'
p4619
aS'age'
p4620
aS'pace'
p4621
aS'cow'
p4622
aS'moved'
p4623
aS'family'
p4624
aS'owned'
p4625
aS'finishing'
p4626
aS'ranch'
p4627
aa(lp4628
S'herb'
p4629
aS'use'
p4630
aS'grown'
p4631
aS'la'
p4632
aS'jolla'
p4633
aS'right'
p4634
aS'store'
p4635
aS'including'
p4636
aS'lemongrass'
p4637
aS'mint'
p4638
aS'lavender'
p4639
aS'edible'
p4640
aS'mini'
p4641
aS'orchid'
p4642
aa(lp4643
S'cold'
p4644
aS'drink'
p4645
aS'cup'
p4646
aS'cutlery'
p4647
aS'straw'
p4648
aS'cupcake'
p4649
aS'holder'
p4650
aS'compostable'
p4651
aS'corn'
p4652
aa(lp4653
g1339
aS'work'
p4654
aS'company'
p4655
aS'minor'
p4656
aS'year'
p4657
aS'age'
p4658
aS'work'
p4659
aa(lp4660
S'cupcake'
p4661
aS'flavor'
p4662
aS'change'
p4663
aS'according'
p4664
aS'season'
p4665
aS'feature'
p4666
aS'local'
p4667
aS'citrus'
p4668
aS'berry'
p4669
aa(lp4670
S'providing'
p4671
aS'healthy'
p4672
aS'environment'
p4673
aS'shade'
p4674
aS'management'
p4675
aS'employing'
p4676
aS'agronomic'
p4677
aS'technique'
p4678
aS'planting'
p4679
aS'hill'
p4680
aS'appropriate'
p4681
aS'slope'
p4682
aS'eliminating'
p4683
aS'pesticide'
p4684
aS'chemical'
p4685
aS'fertilizer'
p4686
aS'use'
p4687
aS'use'
p4688
aS'biological'
p4689
aS'control'
p4690
aS'organic'
p4691
aS'practice'
p4692
aa(lp4693
S'allowing'
p4694
aS'consumer'
p4695
aS'obtain'
p4696
aS'reliable'
p4697
aS'information'
p4698
aS'ghg'
p4699
aS'emission'
p4700
aS'make'
p4701
aS'informed'
p4702
aS'decision'
p4703
aS'goal'
p4704
aS'cfp'
p4705
aS'allow'
p4706
aS'consumer'
p4707
aS'step'
p4708
aS'reducing'
p4709
aS'emission'
p4710
aS'promoting'
p4711
aS'purchase'
p4712
aS'product'
p4713
aS'lowest'
p4714
aS'carbon'
p4715
aS'footprint'
p4716
aa(lp4717
S'verify'
p4718
aS'product'
p4719
aS'degrade'
p4720
aS'safely'
p4721
aS'efficiently'
p4722
aS'worst'
p4723
aS'case'
p4724
aS'circumstance'
p4725
aa(lp4726
a(lp4727
S'aquatic'
p4728
aS'ecosystem'
p4729
aS'protected'
p4730
aS'erosion'
p4731
aS'agrochemical'
p4732
aS'drift'
p4733
aS'runoff'
p4734
aa(lp4735
S'osh'
p4736
aS'compliant'
p4737
aS'health'
p4738
aS'safety'
p4739
aS'management'
p4740
aS'place'
p4741
aS'continuing'
p4742
aS'unsatisifactory'
p4743
aS'addressed'
p4744
aS'staff'
p4745
aS'supplier'
p4746
aS'customer'
p4747
aS'complaint'
p4748
aS'worker'
p4749
aS'health'
p4750
aS'safety'
p4751
aS'condition'
p4752
aS'past'
p4753
aS'month'
p4754
aa(lp4755
S'juice'
p4756
aS'cleanse'
p4757
aS'unique'
p4758
aS'come'
p4759
aS'perfect'
p4760
aS'combination'
p4761
aS'fruit'
p4762
aS'vegetable'
p4763
aS'natural'
p4764
aS'product'
p4765
aS'help'
p4766
aS'achieve'
p4767
aS'objective'
p4768
aS'plan'
p4769
aS'choose'
p4770
aa(lp4771
S'sufficient'
p4772
aS'space'
p4773
aS'ability'
p4774
aS'engage'
p4775
aS'natural'
p4776
aS'behavior'
p4777
aa(lp4778
S'achieved'
p4779
aS'star'
p4780
aS'green'
p4781
aS'restaurant'
p4782
aS'certification'
p4783
aS'awarded'
p4784
aS'san'
p4785
aS'diego'
p4786
aS'earth'
p4787
aS'friendly'
p4788
aS'use'
p4789
aS'sustainable'
p4790
aS'material'
p4791
aS'build'
p4792
aS'lounge'
p4793
aS'bakery'
p4794
aS'daily'
p4795
aS'operation'
p4796
aa(lp4797
S'accommodate'
p4798
aS'dietary'
p4799
aS'need'
p4800
aS'eliminating'
p4801
aS'salt'
p4802
aS'sugar'
p4803
aS'wheat'
p4804
aS'recipe'
p4805
aa(lp4806
S'lost'
p4807
aS'fishing'
p4808
aS'gear'
p4809
aS'oil'
p4810
aS'spill'
p4811
aS'board'
p4812
aS'spoilage'
p4813
aS'catch'
p4814
aa(lp4815
S'protocol'
p4816
aS'created'
p4817
aS'leading'
p4818
aS'allergy'
p4819
aS'specialist'
p4820
aS'specifically'
p4821
aS'benefit'
p4822
aS'sufferer'
p4823
aS'allergy'
p4824
aS'asthma'
p4825
aS'sensitivity'
p4826
aS'intolerance'
p4827
aa(lp4828
S'product'
p4829
aS'meeting'
p4830
aS'eco'
p4831
aS'home'
p4832
aS'requirement'
p4833
aS'contain'
p4834
aS'pbdes'
p4835
aS'foam'
p4836
aS'fabric'
p4837
aS'meet'
p4838
aS'lowest'
p4839
aS'cpsc'
p4840
aS'limit'
p4841
aS'lead'
p4842
aS'paint'
p4843
aS'surface'
p4844
aS'coating'
p4845
aS'leather'
p4846
aa(lp4847
S'fishing'
p4848
aS'conducted'
p4849
aS'manner'
p4850
aS'alter'
p4851
aS'age'
p4852
aS'genetic'
p4853
aS'structure'
p4854
aS'sex'
p4855
aS'composition'
p4856
aS'degree'
p4857
aS'impairs'
p4858
aS'reproductive'
p4859
aS'capacity'
p4860
aa(lp4861
S'anuual'
p4862
aS'review'
p4863
aS'potential'
p4864
aS'risk'
p4865
aS'area'
p4866
aS'mitigation'
p4867
aS'taken'
p4868
aS'minor'
p4869
aS'non'
p4870
aS'conformance'
p4871
aS'worker'
p4872
aS'h'
p4873
aS'managment'
p4874
aS'reported'
p4875
aS'past'
p4876
aS'month'
p4877
aa(lp4878
S'recyclable'
p4879
aS'product'
p4880
aS'diverted'
p4881
aS'waste'
p4882
aS'stream'
p4883
aS'available'
p4884
aS'process'
p4885
aS'program'
p4886
aS'collected'
p4887
aS'processed'
p4888
aS'returned'
p4889
aS'use'
p4890
aS'form'
p4891
aS'raw'
p4892
aS'material'
p4893
aS'product'
p4894
aS'end'
p4895
aS'life'
p4896
aS'furthermore'
p4897
aS'recycled'
p4898
aS'content'
p4899
aS'comprised'
p4900
aS'pre'
p4901
aS'consumer'
p4902
aS'post'
p4903
aS'consumer'
p4904
aS'material'
p4905
aS'used'
p4906
aS'raw'
p4907
aS'material'
p4908
aS'manufacturing'
p4909
aS'product'
p4910
aa.